Archive member included to satisfy reference by file (symbol)

/home/maldus/Local/renesas/e2_studio/toolchains/gcc_arm/10_3_2021_10/gcc-arm-none-eabi-10.3-2021.10/bin/../lib/gcc/arm-none-eabi/10.3.1/thumb/v8-m.base/nofp/libgcc.a(_clzsi2.o)
                              ./ra/fsp/src/r_adc/r_adc.o (__clzsi2)
/home/maldus/Local/renesas/e2_studio/toolchains/gcc_arm/10_3_2021_10/gcc-arm-none-eabi-10.3-2021.10/bin/../lib/gcc/arm-none-eabi/10.3.1/thumb/v8-m.base/nofp/libgcc.a(_aeabi_ldivmod.o)
                              ./ra/fsp/src/r_sci_uart/r_sci_uart.o (__aeabi_ldivmod)
/home/maldus/Local/renesas/e2_studio/toolchains/gcc_arm/10_3_2021_10/gcc-arm-none-eabi-10.3-2021.10/bin/../lib/gcc/arm-none-eabi/10.3.1/thumb/v8-m.base/nofp/libgcc.a(_aeabi_uldivmod.o)
                              ./src/bsp/pwm.o (__aeabi_uldivmod)
/home/maldus/Local/renesas/e2_studio/toolchains/gcc_arm/10_3_2021_10/gcc-arm-none-eabi-10.3-2021.10/bin/../lib/gcc/arm-none-eabi/10.3.1/thumb/v8-m.base/nofp/libgcc.a(_muldi3.o)
                              ./src/bsp/pwm.o (__aeabi_lmul)
/home/maldus/Local/renesas/e2_studio/toolchains/gcc_arm/10_3_2021_10/gcc-arm-none-eabi-10.3-2021.10/bin/../lib/gcc/arm-none-eabi/10.3.1/thumb/v8-m.base/nofp/libgcc.a(_udivmoddi4.o)
                              /home/maldus/Local/renesas/e2_studio/toolchains/gcc_arm/10_3_2021_10/gcc-arm-none-eabi-10.3-2021.10/bin/../lib/gcc/arm-none-eabi/10.3.1/thumb/v8-m.base/nofp/libgcc.a(_aeabi_uldivmod.o) (__udivmoddi4)
/home/maldus/Local/renesas/e2_studio/toolchains/gcc_arm/10_3_2021_10/gcc-arm-none-eabi-10.3-2021.10/bin/../lib/gcc/arm-none-eabi/10.3.1/thumb/v8-m.base/nofp/libgcc.a(bpabi.o)
                              /home/maldus/Local/renesas/e2_studio/toolchains/gcc_arm/10_3_2021_10/gcc-arm-none-eabi-10.3-2021.10/bin/../lib/gcc/arm-none-eabi/10.3.1/thumb/v8-m.base/nofp/libgcc.a(_aeabi_ldivmod.o) (__gnu_ldivmod_helper)
/home/maldus/Local/renesas/e2_studio/toolchains/gcc_arm/10_3_2021_10/gcc-arm-none-eabi-10.3-2021.10/bin/../lib/gcc/arm-none-eabi/10.3.1/thumb/v8-m.base/nofp/libgcc.a(_dvmd_tls.o)
                              /home/maldus/Local/renesas/e2_studio/toolchains/gcc_arm/10_3_2021_10/gcc-arm-none-eabi-10.3-2021.10/bin/../lib/gcc/arm-none-eabi/10.3.1/thumb/v8-m.base/nofp/libgcc.a(_aeabi_ldivmod.o) (__aeabi_ldiv0)
/home/maldus/Local/renesas/e2_studio/toolchains/gcc_arm/10_3_2021_10/gcc-arm-none-eabi-10.3-2021.10/bin/../lib/gcc/arm-none-eabi/10.3.1/thumb/v8-m.base/nofp/libgcc.a(_divdi3.o)
                              /home/maldus/Local/renesas/e2_studio/toolchains/gcc_arm/10_3_2021_10/gcc-arm-none-eabi-10.3-2021.10/bin/../lib/gcc/arm-none-eabi/10.3.1/thumb/v8-m.base/nofp/libgcc.a(bpabi.o) (__divdi3)
/home/maldus/Local/renesas/e2_studio/toolchains/gcc_arm/10_3_2021_10/gcc-arm-none-eabi-10.3-2021.10/bin/../lib/gcc/arm-none-eabi/10.3.1/../../../../arm-none-eabi/lib/thumb/v8-m.base/nofp/libg_nano.a(lib_a-errno.o)
                              ./ra/fsp/src/bsp/mcu/all/bsp_sbrk.o (__errno)
/home/maldus/Local/renesas/e2_studio/toolchains/gcc_arm/10_3_2021_10/gcc-arm-none-eabi-10.3-2021.10/bin/../lib/gcc/arm-none-eabi/10.3.1/../../../../arm-none-eabi/lib/thumb/v8-m.base/nofp/libg_nano.a(lib_a-exit.o)
                              /home/maldus/Local/renesas/e2_studio/toolchains/gcc_arm/10_3_2021_10/gcc-arm-none-eabi-10.3-2021.10/bin/../lib/gcc/arm-none-eabi/10.3.1/../../../../arm-none-eabi/lib/thumb/v8-m.base/nofp/crt0.o (exit)
/home/maldus/Local/renesas/e2_studio/toolchains/gcc_arm/10_3_2021_10/gcc-arm-none-eabi-10.3-2021.10/bin/../lib/gcc/arm-none-eabi/10.3.1/../../../../arm-none-eabi/lib/thumb/v8-m.base/nofp/libg_nano.a(lib_a-impure.o)
                              /home/maldus/Local/renesas/e2_studio/toolchains/gcc_arm/10_3_2021_10/gcc-arm-none-eabi-10.3-2021.10/bin/../lib/gcc/arm-none-eabi/10.3.1/../../../../arm-none-eabi/lib/thumb/v8-m.base/nofp/libg_nano.a(lib_a-exit.o) (_global_impure_ptr)
/home/maldus/Local/renesas/e2_studio/toolchains/gcc_arm/10_3_2021_10/gcc-arm-none-eabi-10.3-2021.10/bin/../lib/gcc/arm-none-eabi/10.3.1/../../../../arm-none-eabi/lib/thumb/v8-m.base/nofp/libg_nano.a(lib_a-init.o)
                              /home/maldus/Local/renesas/e2_studio/toolchains/gcc_arm/10_3_2021_10/gcc-arm-none-eabi-10.3-2021.10/bin/../lib/gcc/arm-none-eabi/10.3.1/../../../../arm-none-eabi/lib/thumb/v8-m.base/nofp/crt0.o (__libc_init_array)
/home/maldus/Local/renesas/e2_studio/toolchains/gcc_arm/10_3_2021_10/gcc-arm-none-eabi-10.3-2021.10/bin/../lib/gcc/arm-none-eabi/10.3.1/../../../../arm-none-eabi/lib/thumb/v8-m.base/nofp/libg_nano.a(lib_a-malloc.o)
                              ./src/controller/observer.o (free)
/home/maldus/Local/renesas/e2_studio/toolchains/gcc_arm/10_3_2021_10/gcc-arm-none-eabi-10.3-2021.10/bin/../lib/gcc/arm-none-eabi/10.3.1/../../../../arm-none-eabi/lib/thumb/v8-m.base/nofp/libg_nano.a(lib_a-memcmp.o)
                              ./libs/c-watcher/src/watcher.o (memcmp)
/home/maldus/Local/renesas/e2_studio/toolchains/gcc_arm/10_3_2021_10/gcc-arm-none-eabi-10.3-2021.10/bin/../lib/gcc/arm-none-eabi/10.3.1/../../../../arm-none-eabi/lib/thumb/v8-m.base/nofp/libg_nano.a(lib_a-memcpy-stub.o)
                              ./src/bsp/rs232.o (memcpy)
/home/maldus/Local/renesas/e2_studio/toolchains/gcc_arm/10_3_2021_10/gcc-arm-none-eabi-10.3-2021.10/bin/../lib/gcc/arm-none-eabi/10.3.1/../../../../arm-none-eabi/lib/thumb/v8-m.base/nofp/libg_nano.a(lib_a-memset.o)
                              /home/maldus/Local/renesas/e2_studio/toolchains/gcc_arm/10_3_2021_10/gcc-arm-none-eabi-10.3-2021.10/bin/../lib/gcc/arm-none-eabi/10.3.1/../../../../arm-none-eabi/lib/thumb/v8-m.base/nofp/crt0.o (memset)
/home/maldus/Local/renesas/e2_studio/toolchains/gcc_arm/10_3_2021_10/gcc-arm-none-eabi-10.3-2021.10/bin/../lib/gcc/arm-none-eabi/10.3.1/../../../../arm-none-eabi/lib/thumb/v8-m.base/nofp/libg_nano.a(lib_a-nano-freer.o)
                              /home/maldus/Local/renesas/e2_studio/toolchains/gcc_arm/10_3_2021_10/gcc-arm-none-eabi-10.3-2021.10/bin/../lib/gcc/arm-none-eabi/10.3.1/../../../../arm-none-eabi/lib/thumb/v8-m.base/nofp/libg_nano.a(lib_a-malloc.o) (_free_r)
/home/maldus/Local/renesas/e2_studio/toolchains/gcc_arm/10_3_2021_10/gcc-arm-none-eabi-10.3-2021.10/bin/../lib/gcc/arm-none-eabi/10.3.1/../../../../arm-none-eabi/lib/thumb/v8-m.base/nofp/libg_nano.a(lib_a-nano-mallocr.o)
                              /home/maldus/Local/renesas/e2_studio/toolchains/gcc_arm/10_3_2021_10/gcc-arm-none-eabi-10.3-2021.10/bin/../lib/gcc/arm-none-eabi/10.3.1/../../../../arm-none-eabi/lib/thumb/v8-m.base/nofp/libg_nano.a(lib_a-malloc.o) (_malloc_r)
/home/maldus/Local/renesas/e2_studio/toolchains/gcc_arm/10_3_2021_10/gcc-arm-none-eabi-10.3-2021.10/bin/../lib/gcc/arm-none-eabi/10.3.1/../../../../arm-none-eabi/lib/thumb/v8-m.base/nofp/libg_nano.a(lib_a-realloc.o)
                              ./src/controller/observer.o (realloc)
/home/maldus/Local/renesas/e2_studio/toolchains/gcc_arm/10_3_2021_10/gcc-arm-none-eabi-10.3-2021.10/bin/../lib/gcc/arm-none-eabi/10.3.1/../../../../arm-none-eabi/lib/thumb/v8-m.base/nofp/libg_nano.a(lib_a-sbrkr.o)
                              /home/maldus/Local/renesas/e2_studio/toolchains/gcc_arm/10_3_2021_10/gcc-arm-none-eabi-10.3-2021.10/bin/../lib/gcc/arm-none-eabi/10.3.1/../../../../arm-none-eabi/lib/thumb/v8-m.base/nofp/libg_nano.a(lib_a-nano-mallocr.o) (_sbrk_r)
/home/maldus/Local/renesas/e2_studio/toolchains/gcc_arm/10_3_2021_10/gcc-arm-none-eabi-10.3-2021.10/bin/../lib/gcc/arm-none-eabi/10.3.1/../../../../arm-none-eabi/lib/thumb/v8-m.base/nofp/libg_nano.a(lib_a-mlock.o)
                              /home/maldus/Local/renesas/e2_studio/toolchains/gcc_arm/10_3_2021_10/gcc-arm-none-eabi-10.3-2021.10/bin/../lib/gcc/arm-none-eabi/10.3.1/../../../../arm-none-eabi/lib/thumb/v8-m.base/nofp/libg_nano.a(lib_a-nano-freer.o) (__malloc_lock)
/home/maldus/Local/renesas/e2_studio/toolchains/gcc_arm/10_3_2021_10/gcc-arm-none-eabi-10.3-2021.10/bin/../lib/gcc/arm-none-eabi/10.3.1/../../../../arm-none-eabi/lib/thumb/v8-m.base/nofp/libg_nano.a(lib_a-nano-reallocr.o)
                              /home/maldus/Local/renesas/e2_studio/toolchains/gcc_arm/10_3_2021_10/gcc-arm-none-eabi-10.3-2021.10/bin/../lib/gcc/arm-none-eabi/10.3.1/../../../../arm-none-eabi/lib/thumb/v8-m.base/nofp/libg_nano.a(lib_a-realloc.o) (_realloc_r)
/home/maldus/Local/renesas/e2_studio/toolchains/gcc_arm/10_3_2021_10/gcc-arm-none-eabi-10.3-2021.10/bin/../lib/gcc/arm-none-eabi/10.3.1/../../../../arm-none-eabi/lib/thumb/v8-m.base/nofp/libg_nano.a(lib_a-reent.o)
                              /home/maldus/Local/renesas/e2_studio/toolchains/gcc_arm/10_3_2021_10/gcc-arm-none-eabi-10.3-2021.10/bin/../lib/gcc/arm-none-eabi/10.3.1/../../../../arm-none-eabi/lib/thumb/v8-m.base/nofp/libg_nano.a(lib_a-sbrkr.o) (errno)
/home/maldus/Local/renesas/e2_studio/toolchains/gcc_arm/10_3_2021_10/gcc-arm-none-eabi-10.3-2021.10/bin/../lib/gcc/arm-none-eabi/10.3.1/../../../../arm-none-eabi/lib/thumb/v8-m.base/nofp/libg_nano.a(lib_a-lock.o)
                              /home/maldus/Local/renesas/e2_studio/toolchains/gcc_arm/10_3_2021_10/gcc-arm-none-eabi-10.3-2021.10/bin/../lib/gcc/arm-none-eabi/10.3.1/../../../../arm-none-eabi/lib/thumb/v8-m.base/nofp/libg_nano.a(lib_a-mlock.o) (__retarget_lock_acquire_recursive)
/home/maldus/Local/renesas/e2_studio/toolchains/gcc_arm/10_3_2021_10/gcc-arm-none-eabi-10.3-2021.10/bin/../lib/gcc/arm-none-eabi/10.3.1/../../../../arm-none-eabi/lib/thumb/v8-m.base/nofp/libg_nano.a(lib_a-nano-msizer.o)
                              /home/maldus/Local/renesas/e2_studio/toolchains/gcc_arm/10_3_2021_10/gcc-arm-none-eabi-10.3-2021.10/bin/../lib/gcc/arm-none-eabi/10.3.1/../../../../arm-none-eabi/lib/thumb/v8-m.base/nofp/libg_nano.a(lib_a-nano-reallocr.o) (_malloc_usable_size_r)

Discarded input sections

 .text          0x0000000000000000        0x0 /home/maldus/Local/renesas/e2_studio/toolchains/gcc_arm/10_3_2021_10/gcc-arm-none-eabi-10.3-2021.10/bin/../lib/gcc/arm-none-eabi/10.3.1/thumb/v8-m.base/nofp/crti.o
 .data          0x0000000000000000        0x0 /home/maldus/Local/renesas/e2_studio/toolchains/gcc_arm/10_3_2021_10/gcc-arm-none-eabi-10.3-2021.10/bin/../lib/gcc/arm-none-eabi/10.3.1/thumb/v8-m.base/nofp/crti.o
 .bss           0x0000000000000000        0x0 /home/maldus/Local/renesas/e2_studio/toolchains/gcc_arm/10_3_2021_10/gcc-arm-none-eabi-10.3-2021.10/bin/../lib/gcc/arm-none-eabi/10.3.1/thumb/v8-m.base/nofp/crti.o
 .data          0x0000000000000000        0x4 /home/maldus/Local/renesas/e2_studio/toolchains/gcc_arm/10_3_2021_10/gcc-arm-none-eabi-10.3-2021.10/bin/../lib/gcc/arm-none-eabi/10.3.1/thumb/v8-m.base/nofp/crtbegin.o
 .rodata        0x0000000000000000       0x24 /home/maldus/Local/renesas/e2_studio/toolchains/gcc_arm/10_3_2021_10/gcc-arm-none-eabi-10.3-2021.10/bin/../lib/gcc/arm-none-eabi/10.3.1/thumb/v8-m.base/nofp/crtbegin.o
 .text          0x0000000000000000       0x80 /home/maldus/Local/renesas/e2_studio/toolchains/gcc_arm/10_3_2021_10/gcc-arm-none-eabi-10.3-2021.10/bin/../lib/gcc/arm-none-eabi/10.3.1/../../../../arm-none-eabi/lib/thumb/v8-m.base/nofp/crt0.o
 .data          0x0000000000000000        0x0 /home/maldus/Local/renesas/e2_studio/toolchains/gcc_arm/10_3_2021_10/gcc-arm-none-eabi-10.3-2021.10/bin/../lib/gcc/arm-none-eabi/10.3.1/../../../../arm-none-eabi/lib/thumb/v8-m.base/nofp/crt0.o
 .bss           0x0000000000000000        0x0 /home/maldus/Local/renesas/e2_studio/toolchains/gcc_arm/10_3_2021_10/gcc-arm-none-eabi-10.3-2021.10/bin/../lib/gcc/arm-none-eabi/10.3.1/../../../../arm-none-eabi/lib/thumb/v8-m.base/nofp/crt0.o
 .ARM.extab     0x0000000000000000        0x0 /home/maldus/Local/renesas/e2_studio/toolchains/gcc_arm/10_3_2021_10/gcc-arm-none-eabi-10.3-2021.10/bin/../lib/gcc/arm-none-eabi/10.3.1/../../../../arm-none-eabi/lib/thumb/v8-m.base/nofp/crt0.o
 .ARM.exidx     0x0000000000000000       0x10 /home/maldus/Local/renesas/e2_studio/toolchains/gcc_arm/10_3_2021_10/gcc-arm-none-eabi-10.3-2021.10/bin/../lib/gcc/arm-none-eabi/10.3.1/../../../../arm-none-eabi/lib/thumb/v8-m.base/nofp/crt0.o
 .ARM.attributes
                0x0000000000000000       0x20 /home/maldus/Local/renesas/e2_studio/toolchains/gcc_arm/10_3_2021_10/gcc-arm-none-eabi-10.3-2021.10/bin/../lib/gcc/arm-none-eabi/10.3.1/../../../../arm-none-eabi/lib/thumb/v8-m.base/nofp/crt0.o
 .text          0x0000000000000000        0x0 ./src/services/crc16-ccitt.o
 .data          0x0000000000000000        0x0 ./src/services/crc16-ccitt.o
 .bss           0x0000000000000000        0x0 ./src/services/crc16-ccitt.o
 .text          0x0000000000000000        0x0 ./src/model/cycle.o
 .data          0x0000000000000000        0x0 ./src/model/cycle.o
 .bss           0x0000000000000000        0x0 ./src/model/cycle.o
 .text.cycle_start
                0x0000000000000000       0x10 ./src/model/cycle.o
 .text          0x0000000000000000        0x0 ./src/model/heating.o
 .data          0x0000000000000000        0x0 ./src/model/heating.o
 .bss           0x0000000000000000        0x0 ./src/model/heating.o
 .text          0x0000000000000000        0x0 ./src/model/model.o
 .data          0x0000000000000000        0x0 ./src/model/model.o
 .bss           0x0000000000000000        0x0 ./src/model/model.o
 .text.model_tipo_asciugatura
                0x0000000000000000       0x2c ./src/model/model.o
 .text.model_attesa_temperatura_asciugatura
                0x0000000000000000       0x2e ./src/model/model.o
 .text.model_inversione_asciugatura
                0x0000000000000000       0x2e ./src/model/model.o
 .text.model_is_step_antifold
                0x0000000000000000       0x30 ./src/model/model.o
 .text.model_add_second
                0x0000000000000000       0x2c ./src/model/model.o
 .text.model_add_complete_cycle
                0x0000000000000000       0x2c ./src/model/model.o
 .text.model_add_partial_cycle
                0x0000000000000000       0x2c ./src/model/model.o
 .text.model_is_fan_ok
                0x0000000000000000       0x2e ./src/model/model.o
 .text.model_is_heating_ok
                0x0000000000000000       0x40 ./src/model/model.o
 .text.model_get_heating_alarm
                0x0000000000000000       0x58 ./src/model/model.o
 .rodata.__func__.11
                0x0000000000000000       0x18 ./src/model/model.o
 .rodata.__func__.12
                0x0000000000000000       0x19 ./src/model/model.o
 .rodata.__func__.18
                0x0000000000000000       0x11 ./src/model/model.o
 .rodata.__func__.25
                0x0000000000000000       0x17 ./src/model/model.o
 .rodata.__func__.27
                0x0000000000000000       0x1d ./src/model/model.o
 .rodata.__func__.28
                0x0000000000000000       0x25 ./src/model/model.o
 .rodata.__func__.29
                0x0000000000000000       0x17 ./src/model/model.o
 .rodata.__func__.4
                0x0000000000000000       0x18 ./src/model/model.o
 .rodata.__func__.5
                0x0000000000000000       0x14 ./src/model/model.o
 .rodata.__func__.6
                0x0000000000000000       0x10 ./src/model/model.o
 .text          0x0000000000000000        0x0 ./src/controller/controller.o
 .data          0x0000000000000000        0x0 ./src/controller/controller.o
 .bss           0x0000000000000000        0x0 ./src/controller/controller.o
 .text          0x0000000000000000        0x0 ./src/controller/observer.o
 .data          0x0000000000000000        0x0 ./src/controller/observer.o
 .bss           0x0000000000000000        0x0 ./src/controller/observer.o
 .text          0x0000000000000000        0x0 ./src/bsp/adc.o
 .data          0x0000000000000000        0x0 ./src/bsp/adc.o
 .bss           0x0000000000000000        0x0 ./src/bsp/adc.o
 .text          0x0000000000000000        0x0 ./src/bsp/coin_reader.o
 .data          0x0000000000000000        0x0 ./src/bsp/coin_reader.o
 .bss           0x0000000000000000        0x0 ./src/bsp/coin_reader.o
 .text          0x0000000000000000        0x0 ./src/bsp/digin.o
 .data          0x0000000000000000        0x0 ./src/bsp/digin.o
 .bss           0x0000000000000000        0x0 ./src/bsp/digin.o
 .text.bsp_digin_get
                0x0000000000000000       0x22 ./src/bsp/digin.o
 .text          0x0000000000000000        0x0 ./src/bsp/heartbit.o
 .data          0x0000000000000000        0x0 ./src/bsp/heartbit.o
 .bss           0x0000000000000000        0x0 ./src/bsp/heartbit.o
 .text          0x0000000000000000        0x0 ./src/bsp/power_off.o
 .data          0x0000000000000000        0x0 ./src/bsp/power_off.o
 .bss           0x0000000000000000        0x0 ./src/bsp/power_off.o
 .text.error_handler
                0x0000000000000000        0x2 ./src/bsp/power_off.o
 .text.rm_vee_example
                0x0000000000000000       0xd0 ./src/bsp/power_off.o
 .rodata        0x0000000000000000        0xc ./src/bsp/power_off.o
 .rodata.__func__.2
                0x0000000000000000        0xf ./src/bsp/power_off.o
 .text          0x0000000000000000        0x0 ./src/bsp/pwm.o
 .data          0x0000000000000000        0x0 ./src/bsp/pwm.o
 .bss           0x0000000000000000        0x0 ./src/bsp/pwm.o
 .text          0x0000000000000000        0x0 ./src/bsp/relay.o
 .data          0x0000000000000000        0x0 ./src/bsp/relay.o
 .bss           0x0000000000000000        0x0 ./src/bsp/relay.o
 .text          0x0000000000000000        0x0 ./src/bsp/rs232.o
 .data          0x0000000000000000        0x0 ./src/bsp/rs232.o
 .bss           0x0000000000000000        0x0 ./src/bsp/rs232.o
 .text          0x0000000000000000        0x0 ./src/bsp/spi.o
 .data          0x0000000000000000        0x0 ./src/bsp/spi.o
 .bss           0x0000000000000000        0x0 ./src/bsp/spi.o
 .text          0x0000000000000000        0x0 ./src/bsp/system.o
 .data          0x0000000000000000        0x0 ./src/bsp/system.o
 .bss           0x0000000000000000        0x0 ./src/bsp/system.o
 .text          0x0000000000000000        0x0 ./src/bsp/temperature_humidity_probe.o
 .data          0x0000000000000000        0x0 ./src/bsp/temperature_humidity_probe.o
 .bss           0x0000000000000000        0x0 ./src/bsp/temperature_humidity_probe.o
 .text          0x0000000000000000        0x0 ./src/adapters/modbus_server.o
 .data          0x0000000000000000        0x0 ./src/adapters/modbus_server.o
 .bss           0x0000000000000000        0x0 ./src/adapters/modbus_server.o
 .text.modbusDefaultAllocator
                0x0000000000000000       0x2e ./src/adapters/modbus_server.o
 .text.modbusBufferDestroy
                0x0000000000000000        0x8 ./src/adapters/modbus_server.o
 .text.modbusSlaveDestroy
                0x0000000000000000        0xc ./src/adapters/modbus_server.o
 .text.modbusBuildExceptionPDU
                0x0000000000000000       0x26 ./src/adapters/modbus_server.o
 .text.modbusBuildExceptionRTU
                0x0000000000000000       0x58 ./src/adapters/modbus_server.o
 .text.modbusBuildExceptionTCP
                0x0000000000000000       0x5a ./src/adapters/modbus_server.o
 .text.modbusParseRequestPDU
                0x0000000000000000       0x1e ./src/adapters/modbus_server.o
 .text.modbusParseRequestTCP
                0x0000000000000000       0xb4 ./src/adapters/modbus_server.o
 .text.modbusParseRequest0506
                0x0000000000000000       0xec ./src/adapters/modbus_server.o
 .text.modbusParseRequest22
                0x0000000000000000      0x12c ./src/adapters/modbus_server.o
 .rodata.modbusSlaveDefaultFunctionCount
                0x0000000000000000        0x1 ./src/adapters/modbus_server.o
 .text          0x0000000000000000        0x0 ./src/hal_entry.o
 .data          0x0000000000000000        0x0 ./src/hal_entry.o
 .bss           0x0000000000000000        0x0 ./src/hal_entry.o
 .text          0x0000000000000000        0x0 ./ra_gen/common_data.o
 .data          0x0000000000000000        0x0 ./ra_gen/common_data.o
 .bss           0x0000000000000000        0x0 ./ra_gen/common_data.o
 .text.g_common_init
                0x0000000000000000        0x2 ./ra_gen/common_data.o
 .rodata.g_external_irq0
                0x0000000000000000        0xc ./ra_gen/common_data.o
 .text          0x0000000000000000        0x0 ./ra_gen/hal_data.o
 .data          0x0000000000000000        0x0 ./ra_gen/hal_data.o
 .bss           0x0000000000000000        0x0 ./ra_gen/hal_data.o
 .text.g_hal_init
                0x0000000000000000        0x8 ./ra_gen/hal_data.o
 .rodata.g_adc0
                0x0000000000000000       0x10 ./ra_gen/hal_data.o
 .rodata.g_timer_pwm
                0x0000000000000000        0xc ./ra_gen/hal_data.o
 .rodata.g_vee0
                0x0000000000000000        0xc ./ra_gen/hal_data.o
 .text          0x0000000000000000        0x0 ./ra_gen/main.o
 .data          0x0000000000000000        0x0 ./ra_gen/main.o
 .bss           0x0000000000000000        0x0 ./ra_gen/main.o
 .text          0x0000000000000000        0x0 ./ra_gen/pin_data.o
 .data          0x0000000000000000        0x0 ./ra_gen/pin_data.o
 .bss           0x0000000000000000        0x0 ./ra_gen/pin_data.o
 .text          0x0000000000000000        0x0 ./ra_gen/vector_data.o
 .data          0x0000000000000000        0x0 ./ra_gen/vector_data.o
 .bss           0x0000000000000000        0x0 ./ra_gen/vector_data.o
 .text          0x0000000000000000        0x0 ./ra/fsp/src/rm_vee_flash/rm_vee_flash.o
 .data          0x0000000000000000        0x0 ./ra/fsp/src/rm_vee_flash/rm_vee_flash.o
 .bss           0x0000000000000000        0x0 ./ra/fsp/src/rm_vee_flash/rm_vee_flash.o
 .text.RM_VEE_FLASH_RefDataWrite
                0x0000000000000000        0x4 ./ra/fsp/src/rm_vee_flash/rm_vee_flash.o
 .text.RM_VEE_FLASH_RefDataPtrGet
                0x0000000000000000        0x4 ./ra/fsp/src/rm_vee_flash/rm_vee_flash.o
 .text.RM_VEE_FLASH_Close
                0x0000000000000000       0x1e ./ra/fsp/src/rm_vee_flash/rm_vee_flash.o
 .text.RM_VEE_FLASH_StatusGet
                0x0000000000000000       0x26 ./ra/fsp/src/rm_vee_flash/rm_vee_flash.o
 .text.RM_VEE_FLASH_Format
                0x0000000000000000       0x2e ./ra/fsp/src/rm_vee_flash/rm_vee_flash.o
 .text.RM_VEE_FLASH_CallbackSet
                0x0000000000000000       0x18 ./ra/fsp/src/rm_vee_flash/rm_vee_flash.o
 .rodata.g_rm_vee_on_flash
                0x0000000000000000       0x28 ./ra/fsp/src/rm_vee_flash/rm_vee_flash.o
 .text          0x0000000000000000        0x0 ./ra/fsp/src/r_sci_uart/r_sci_uart.o
 .data          0x0000000000000000        0x0 ./ra/fsp/src/r_sci_uart/r_sci_uart.o
 .bss           0x0000000000000000        0x0 ./ra/fsp/src/r_sci_uart/r_sci_uart.o
 .text.R_SCI_UART_BaudCalculate
                0x0000000000000000      0x1ca ./ra/fsp/src/r_sci_uart/r_sci_uart.o
 .rodata.g_async_baud
                0x0000000000000000        0xd ./ra/fsp/src/r_sci_uart/r_sci_uart.o
 .rodata.g_div_coefficient
                0x0000000000000000       0x1a ./ra/fsp/src/r_sci_uart/r_sci_uart.o
 .text          0x0000000000000000        0x0 ./ra/fsp/src/r_ioport/r_ioport.o
 .data          0x0000000000000000        0x0 ./ra/fsp/src/r_ioport/r_ioport.o
 .bss           0x0000000000000000        0x0 ./ra/fsp/src/r_ioport/r_ioport.o
 .text          0x0000000000000000        0x0 ./ra/fsp/src/r_icu/r_icu.o
 .data          0x0000000000000000        0x0 ./ra/fsp/src/r_icu/r_icu.o
 .bss           0x0000000000000000        0x0 ./ra/fsp/src/r_icu/r_icu.o
 .text.R_ICU_ExternalIrqCallbackSet
                0x0000000000000000        0x8 ./ra/fsp/src/r_icu/r_icu.o
 .text.R_ICU_ExternalIrqDisable
                0x0000000000000000        0xe ./ra/fsp/src/r_icu/r_icu.o
 .text.R_ICU_ExternalIrqClose
                0x0000000000000000       0x2c ./ra/fsp/src/r_icu/r_icu.o
 .rodata.g_external_irq_on_icu
                0x0000000000000000       0x14 ./ra/fsp/src/r_icu/r_icu.o
 .text          0x0000000000000000        0x0 ./ra/fsp/src/r_gpt/r_gpt.o
 .data          0x0000000000000000        0x0 ./ra/fsp/src/r_gpt/r_gpt.o
 .bss           0x0000000000000000        0x0 ./ra/fsp/src/r_gpt/r_gpt.o
 .text.R_GPT_Stop
                0x0000000000000000        0xa ./ra/fsp/src/r_gpt/r_gpt.o
 .text.R_GPT_Reset
                0x0000000000000000        0xa ./ra/fsp/src/r_gpt/r_gpt.o
 .text.R_GPT_Enable
                0x0000000000000000       0x32 ./ra/fsp/src/r_gpt/r_gpt.o
 .text.R_GPT_PeriodSet
                0x0000000000000000       0x34 ./ra/fsp/src/r_gpt/r_gpt.o
 .text.R_GPT_CompareMatchSet
                0x0000000000000000       0x10 ./ra/fsp/src/r_gpt/r_gpt.o
 .text.R_GPT_StatusGet
                0x0000000000000000       0x14 ./ra/fsp/src/r_gpt/r_gpt.o
 .text.R_GPT_CallbackSet
                0x0000000000000000        0xa ./ra/fsp/src/r_gpt/r_gpt.o
 .text.R_GPT_Disable
                0x0000000000000000        0xa ./ra/fsp/src/r_gpt/r_gpt.o
 .text.r_gpt_call_callback
                0x0000000000000000       0x34 ./ra/fsp/src/r_gpt/r_gpt.o
 .text.r_gpt_disable_irq
                0x0000000000000000       0x1c ./ra/fsp/src/r_gpt/r_gpt.o
 .text.R_GPT_Close
                0x0000000000000000       0x32 ./ra/fsp/src/r_gpt/r_gpt.o
 .text.r_gpt_ccmp_common_isr
                0x0000000000000000       0x6a ./ra/fsp/src/r_gpt/r_gpt.o
 .text.R_GPT_CounterSet
                0x0000000000000000        0x8 ./ra/fsp/src/r_gpt/r_gpt.o
 .text.R_GPT_OutputEnable
                0x0000000000000000       0x1c ./ra/fsp/src/r_gpt/r_gpt.o
 .text.R_GPT_OutputDisable
                0x0000000000000000       0x20 ./ra/fsp/src/r_gpt/r_gpt.o
 .text.R_GPT_AdcTriggerSet
                0x0000000000000000        0xe ./ra/fsp/src/r_gpt/r_gpt.o
 .text.R_GPT_PwmOutputDelaySet
                0x0000000000000000        0x4 ./ra/fsp/src/r_gpt/r_gpt.o
 .text.R_GPT_PwmOutputDelayInitialize
                0x0000000000000000        0x4 ./ra/fsp/src/r_gpt/r_gpt.o
 .text.gpt_counter_overflow_isr
                0x0000000000000000       0x54 ./ra/fsp/src/r_gpt/r_gpt.o
 .text.gpt_capture_compare_a_isr
                0x0000000000000000        0xa ./ra/fsp/src/r_gpt/r_gpt.o
 .text.gpt_capture_compare_b_isr
                0x0000000000000000        0xa ./ra/fsp/src/r_gpt/r_gpt.o
 .rodata.g_timer_on_gpt
                0x0000000000000000       0x34 ./ra/fsp/src/r_gpt/r_gpt.o
 .text          0x0000000000000000        0x0 ./ra/fsp/src/r_flash_lp/r_flash_lp.o
 .data          0x0000000000000000        0x0 ./ra/fsp/src/r_flash_lp/r_flash_lp.o
 .bss           0x0000000000000000        0x0 ./ra/fsp/src/r_flash_lp/r_flash_lp.o
 .text          0x0000000000000000        0x0 ./ra/fsp/src/r_adc/r_adc.o
 .data          0x0000000000000000        0x0 ./ra/fsp/src/r_adc/r_adc.o
 .bss           0x0000000000000000        0x0 ./ra/fsp/src/r_adc/r_adc.o
 .text.R_ADC_CallbackSet
                0x0000000000000000        0xa ./ra/fsp/src/r_adc/r_adc.o
 .text.R_ADC_ScanGroupStart
                0x0000000000000000        0x4 ./ra/fsp/src/r_adc/r_adc.o
 .text.R_ADC_ScanStop
                0x0000000000000000        0xa ./ra/fsp/src/r_adc/r_adc.o
 .text.R_ADC_StatusGet
                0x0000000000000000        0xc ./ra/fsp/src/r_adc/r_adc.o
 .text.R_ADC_Read32
                0x0000000000000000       0x2e ./ra/fsp/src/r_adc/r_adc.o
 .text.R_ADC_Calibrate
                0x0000000000000000        0x4 ./ra/fsp/src/r_adc/r_adc.o
 .text.R_ADC_OffsetSet
                0x0000000000000000        0x4 ./ra/fsp/src/r_adc/r_adc.o
 .text.r_adc_lowest_channel_get
                0x0000000000000000       0x18 ./ra/fsp/src/r_adc/r_adc.o
 .text.R_ADC_InfoGet
                0x0000000000000000       0x84 ./ra/fsp/src/r_adc/r_adc.o
 .text.r_adc_irq_disable
                0x0000000000000000       0x1c ./ra/fsp/src/r_adc/r_adc.o
 .text.R_ADC_Close
                0x0000000000000000       0x64 ./ra/fsp/src/r_adc/r_adc.o
 .text.R_ADC_SampleStateCountSet
                0x0000000000000000       0x12 ./ra/fsp/src/r_adc/r_adc.o
 .text.adc_scan_end_b_isr
                0x0000000000000000        0xa ./ra/fsp/src/r_adc/r_adc.o
 .text.adc_window_compare_isr
                0x0000000000000000      0x118 ./ra/fsp/src/r_adc/r_adc.o
 .rodata.g_adc_on_adc
                0x0000000000000000       0x34 ./ra/fsp/src/r_adc/r_adc.o
 .text          0x0000000000000000        0x0 ./ra/fsp/src/bsp/mcu/ra2l1/bsp_power.o
 .data          0x0000000000000000        0x0 ./ra/fsp/src/bsp/mcu/ra2l1/bsp_power.o
 .bss           0x0000000000000000        0x0 ./ra/fsp/src/bsp/mcu/ra2l1/bsp_power.o
 .debug_info    0x0000000000000000       0x79 ./ra/fsp/src/bsp/mcu/ra2l1/bsp_power.o
 .debug_abbrev  0x0000000000000000       0x26 ./ra/fsp/src/bsp/mcu/ra2l1/bsp_power.o
 .debug_aranges
                0x0000000000000000       0x18 ./ra/fsp/src/bsp/mcu/ra2l1/bsp_power.o
 .debug_line    0x0000000000000000       0x1d ./ra/fsp/src/bsp/mcu/ra2l1/bsp_power.o
 .debug_str     0x0000000000000000      0x1c7 ./ra/fsp/src/bsp/mcu/ra2l1/bsp_power.o
 .comment       0x0000000000000000       0x4a ./ra/fsp/src/bsp/mcu/ra2l1/bsp_power.o
 .ARM.attributes
                0x0000000000000000       0x30 ./ra/fsp/src/bsp/mcu/ra2l1/bsp_power.o
 .text          0x0000000000000000        0x0 ./ra/fsp/src/bsp/mcu/all/bsp_clocks.o
 .data          0x0000000000000000        0x0 ./ra/fsp/src/bsp/mcu/all/bsp_clocks.o
 .bss           0x0000000000000000        0x0 ./ra/fsp/src/bsp/mcu/all/bsp_clocks.o
 .text.bsp_clock_set_memwait
                0x0000000000000000       0x30 ./ra/fsp/src/bsp/mcu/all/bsp_clocks.o
 .text.bsp_clock_set_prechange
                0x0000000000000000       0x24 ./ra/fsp/src/bsp/mcu/all/bsp_clocks.o
 .text.bsp_clock_set_postchange
                0x0000000000000000       0x22 ./ra/fsp/src/bsp/mcu/all/bsp_clocks.o
 .text.bsp_prv_operating_mode_set
                0x0000000000000000       0x66 ./ra/fsp/src/bsp/mcu/all/bsp_clocks.o
 .text.prv_clock_dividers_set
                0x0000000000000000        0xc ./ra/fsp/src/bsp/mcu/all/bsp_clocks.o
 .text.bsp_prv_clock_set
                0x0000000000000000       0x90 ./ra/fsp/src/bsp/mcu/all/bsp_clocks.o
 .text.R_BSP_OctaclkUpdate
                0x0000000000000000        0x2 ./ra/fsp/src/bsp/mcu/all/bsp_clocks.o
 .text.R_BSP_SourceClockHzGet
                0x0000000000000000        0xe ./ra/fsp/src/bsp/mcu/all/bsp_clocks.o
 .text          0x0000000000000000        0x0 ./ra/fsp/src/bsp/mcu/all/bsp_common.o
 .data          0x0000000000000000        0x0 ./ra/fsp/src/bsp/mcu/all/bsp_common.o
 .bss           0x0000000000000000        0x0 ./ra/fsp/src/bsp/mcu/all/bsp_common.o
 .text.R_FSP_VersionGet
                0x0000000000000000       0x12 ./ra/fsp/src/bsp/mcu/all/bsp_common.o
 .text          0x0000000000000000        0x0 ./ra/fsp/src/bsp/mcu/all/bsp_delay.o
 .data          0x0000000000000000        0x0 ./ra/fsp/src/bsp/mcu/all/bsp_delay.o
 .bss           0x0000000000000000        0x0 ./ra/fsp/src/bsp/mcu/all/bsp_delay.o
 .text          0x0000000000000000        0x0 ./ra/fsp/src/bsp/mcu/all/bsp_group_irq.o
 .data          0x0000000000000000        0x0 ./ra/fsp/src/bsp/mcu/all/bsp_group_irq.o
 .bss           0x0000000000000000        0x0 ./ra/fsp/src/bsp/mcu/all/bsp_group_irq.o
 .text.R_BSP_GroupIrqWrite
                0x0000000000000000       0x10 ./ra/fsp/src/bsp/mcu/all/bsp_group_irq.o
 .text          0x0000000000000000        0x0 ./ra/fsp/src/bsp/mcu/all/bsp_guard.o
 .data          0x0000000000000000        0x0 ./ra/fsp/src/bsp/mcu/all/bsp_guard.o
 .bss           0x0000000000000000        0x0 ./ra/fsp/src/bsp/mcu/all/bsp_guard.o
 .debug_info    0x0000000000000000       0x79 ./ra/fsp/src/bsp/mcu/all/bsp_guard.o
 .debug_abbrev  0x0000000000000000       0x26 ./ra/fsp/src/bsp/mcu/all/bsp_guard.o
 .debug_aranges
                0x0000000000000000       0x18 ./ra/fsp/src/bsp/mcu/all/bsp_guard.o
 .debug_line    0x0000000000000000       0x1d ./ra/fsp/src/bsp/mcu/all/bsp_guard.o
 .debug_str     0x0000000000000000      0x1c5 ./ra/fsp/src/bsp/mcu/all/bsp_guard.o
 .comment       0x0000000000000000       0x4a ./ra/fsp/src/bsp/mcu/all/bsp_guard.o
 .ARM.attributes
                0x0000000000000000       0x30 ./ra/fsp/src/bsp/mcu/all/bsp_guard.o
 .text          0x0000000000000000        0x0 ./ra/fsp/src/bsp/mcu/all/bsp_io.o
 .data          0x0000000000000000        0x0 ./ra/fsp/src/bsp/mcu/all/bsp_io.o
 .bss           0x0000000000000000        0x0 ./ra/fsp/src/bsp/mcu/all/bsp_io.o
 .text          0x0000000000000000        0x0 ./ra/fsp/src/bsp/mcu/all/bsp_irq.o
 .data          0x0000000000000000        0x0 ./ra/fsp/src/bsp/mcu/all/bsp_irq.o
 .bss           0x0000000000000000        0x0 ./ra/fsp/src/bsp/mcu/all/bsp_irq.o
 .rodata.g_interrupt_event_link_select
                0x0000000000000000       0x20 ./ra/fsp/src/bsp/mcu/all/bsp_irq.o
 .text          0x0000000000000000        0x0 ./ra/fsp/src/bsp/mcu/all/bsp_macl.o
 .data          0x0000000000000000        0x0 ./ra/fsp/src/bsp/mcu/all/bsp_macl.o
 .bss           0x0000000000000000        0x0 ./ra/fsp/src/bsp/mcu/all/bsp_macl.o
 .debug_info    0x0000000000000000       0x79 ./ra/fsp/src/bsp/mcu/all/bsp_macl.o
 .debug_abbrev  0x0000000000000000       0x26 ./ra/fsp/src/bsp/mcu/all/bsp_macl.o
 .debug_aranges
                0x0000000000000000       0x18 ./ra/fsp/src/bsp/mcu/all/bsp_macl.o
 .debug_line    0x0000000000000000       0x1d ./ra/fsp/src/bsp/mcu/all/bsp_macl.o
 .debug_str     0x0000000000000000      0x1c4 ./ra/fsp/src/bsp/mcu/all/bsp_macl.o
 .comment       0x0000000000000000       0x4a ./ra/fsp/src/bsp/mcu/all/bsp_macl.o
 .ARM.attributes
                0x0000000000000000       0x30 ./ra/fsp/src/bsp/mcu/all/bsp_macl.o
 .text          0x0000000000000000        0x0 ./ra/fsp/src/bsp/mcu/all/bsp_register_protection.o
 .data          0x0000000000000000        0x0 ./ra/fsp/src/bsp/mcu/all/bsp_register_protection.o
 .bss           0x0000000000000000        0x0 ./ra/fsp/src/bsp/mcu/all/bsp_register_protection.o
 .text          0x0000000000000000        0x0 ./ra/fsp/src/bsp/mcu/all/bsp_rom_registers.o
 .data          0x0000000000000000        0x0 ./ra/fsp/src/bsp/mcu/all/bsp_rom_registers.o
 .bss           0x0000000000000000        0x0 ./ra/fsp/src/bsp/mcu/all/bsp_rom_registers.o
 .text          0x0000000000000000        0x0 ./ra/fsp/src/bsp/mcu/all/bsp_sbrk.o
 .data          0x0000000000000000        0x0 ./ra/fsp/src/bsp/mcu/all/bsp_sbrk.o
 .bss           0x0000000000000000        0x0 ./ra/fsp/src/bsp/mcu/all/bsp_sbrk.o
 .text          0x0000000000000000        0x0 ./ra/fsp/src/bsp/mcu/all/bsp_sdram.o
 .data          0x0000000000000000        0x0 ./ra/fsp/src/bsp/mcu/all/bsp_sdram.o
 .bss           0x0000000000000000        0x0 ./ra/fsp/src/bsp/mcu/all/bsp_sdram.o
 .debug_info    0x0000000000000000       0x79 ./ra/fsp/src/bsp/mcu/all/bsp_sdram.o
 .debug_abbrev  0x0000000000000000       0x26 ./ra/fsp/src/bsp/mcu/all/bsp_sdram.o
 .debug_aranges
                0x0000000000000000       0x18 ./ra/fsp/src/bsp/mcu/all/bsp_sdram.o
 .debug_line    0x0000000000000000       0x1d ./ra/fsp/src/bsp/mcu/all/bsp_sdram.o
 .debug_str     0x0000000000000000      0x1c5 ./ra/fsp/src/bsp/mcu/all/bsp_sdram.o
 .comment       0x0000000000000000       0x4a ./ra/fsp/src/bsp/mcu/all/bsp_sdram.o
 .ARM.attributes
                0x0000000000000000       0x30 ./ra/fsp/src/bsp/mcu/all/bsp_sdram.o
 .text          0x0000000000000000        0x0 ./ra/fsp/src/bsp/mcu/all/bsp_security.o
 .data          0x0000000000000000        0x0 ./ra/fsp/src/bsp/mcu/all/bsp_security.o
 .bss           0x0000000000000000        0x0 ./ra/fsp/src/bsp/mcu/all/bsp_security.o
 .debug_info    0x0000000000000000       0x79 ./ra/fsp/src/bsp/mcu/all/bsp_security.o
 .debug_abbrev  0x0000000000000000       0x26 ./ra/fsp/src/bsp/mcu/all/bsp_security.o
 .debug_aranges
                0x0000000000000000       0x18 ./ra/fsp/src/bsp/mcu/all/bsp_security.o
 .debug_line    0x0000000000000000       0x1d ./ra/fsp/src/bsp/mcu/all/bsp_security.o
 .debug_str     0x0000000000000000      0x1c8 ./ra/fsp/src/bsp/mcu/all/bsp_security.o
 .comment       0x0000000000000000       0x4a ./ra/fsp/src/bsp/mcu/all/bsp_security.o
 .ARM.attributes
                0x0000000000000000       0x30 ./ra/fsp/src/bsp/mcu/all/bsp_security.o
 .text          0x0000000000000000        0x0 ./ra/fsp/src/bsp/cmsis/Device/RENESAS/Source/startup.o
 .data          0x0000000000000000        0x0 ./ra/fsp/src/bsp/cmsis/Device/RENESAS/Source/startup.o
 .bss           0x0000000000000000        0x0 ./ra/fsp/src/bsp/cmsis/Device/RENESAS/Source/startup.o
 .text          0x0000000000000000        0x0 ./ra/fsp/src/bsp/cmsis/Device/RENESAS/Source/system.o
 .data          0x0000000000000000        0x0 ./ra/fsp/src/bsp/cmsis/Device/RENESAS/Source/system.o
 .bss           0x0000000000000000        0x0 ./ra/fsp/src/bsp/cmsis/Device/RENESAS/Source/system.o
 .text.R_BSP_WarmStart
                0x0000000000000000        0x2 ./ra/fsp/src/bsp/cmsis/Device/RENESAS/Source/system.o
 .text          0x0000000000000000        0x0 ./libs/c-watcher/src/watcher.o
 .data          0x0000000000000000        0x0 ./libs/c-watcher/src/watcher.o
 .bss           0x0000000000000000        0x0 ./libs/c-watcher/src/watcher.o
 .text.watcher_init_static
                0x0000000000000000       0x42 ./libs/c-watcher/src/watcher.o
 .text.watcher_destroy
                0x0000000000000000       0x2c ./libs/c-watcher/src/watcher.o
 .text.watcher_add_entry_delayed_static
                0x0000000000000000       0x18 ./libs/c-watcher/src/watcher.o
 .text.watcher_add_entry_delayed
                0x0000000000000000       0x3c ./libs/c-watcher/src/watcher.o
 .text.watcher_trigger_all
                0x0000000000000000       0x1c ./libs/c-watcher/src/watcher.o
 .text.watcher_reset_all
                0x0000000000000000       0x4c ./libs/c-watcher/src/watcher.o
 .text          0x0000000000000000        0x0 ./libs/c-stopwatch/src/stopwatch.o
 .data          0x0000000000000000        0x0 ./libs/c-stopwatch/src/stopwatch.o
 .bss           0x0000000000000000        0x0 ./libs/c-stopwatch/src/stopwatch.o
 .text.stopwatch_set_elapsed
                0x0000000000000000        0x4 ./libs/c-stopwatch/src/stopwatch.o
 .text.stopwatch_get_overtime
                0x0000000000000000       0x1a ./libs/c-stopwatch/src/stopwatch.o
 .text          0x0000000000000000        0x0 ./libs/c-stopwatch/src/stopwatch_timer.o
 .data          0x0000000000000000        0x0 ./libs/c-stopwatch/src/stopwatch_timer.o
 .bss           0x0000000000000000        0x0 ./libs/c-stopwatch/src/stopwatch_timer.o
 .text.stopwatch_timer_set_autoreload
                0x0000000000000000       0x12 ./libs/c-stopwatch/src/stopwatch_timer.o
 .text.stopwatch_timer_trigger
                0x0000000000000000        0x8 ./libs/c-stopwatch/src/stopwatch_timer.o
 .text.stopwatch_timer_get_arg
                0x0000000000000000        0x4 ./libs/c-stopwatch/src/stopwatch_timer.o
 .text          0x0000000000000000        0x0 ./libs/c-debounce/src/debounce.o
 .data          0x0000000000000000        0x0 ./libs/c-debounce/src/debounce.o
 .bss           0x0000000000000000        0x0 ./libs/c-debounce/src/debounce.o
 .text.debounce_filter_set
                0x0000000000000000        0x6 ./libs/c-debounce/src/debounce.o
 .text          0x0000000000000000        0x0 ./libs/c-debounce/src/keypad.o
 .data          0x0000000000000000        0x0 ./libs/c-debounce/src/keypad.o
 .bss           0x0000000000000000        0x0 ./libs/c-debounce/src/keypad.o
 .text.keypad_get_key_state
                0x0000000000000000        0x4 ./libs/c-debounce/src/keypad.o
 .text.keypad_routine
                0x0000000000000000      0x14e ./libs/c-debounce/src/keypad.o
 .text.keypad_reset_keys
                0x0000000000000000       0x26 ./libs/c-debounce/src/keypad.o
 .debug_info    0x0000000000000000      0x46c ./libs/c-debounce/src/keypad.o
 .debug_abbrev  0x0000000000000000      0x19a ./libs/c-debounce/src/keypad.o
 .debug_loc     0x0000000000000000      0x31d ./libs/c-debounce/src/keypad.o
 .debug_aranges
                0x0000000000000000       0x30 ./libs/c-debounce/src/keypad.o
 .debug_ranges  0x0000000000000000       0x20 ./libs/c-debounce/src/keypad.o
 .debug_line    0x0000000000000000      0x4a1 ./libs/c-debounce/src/keypad.o
 .debug_str     0x0000000000000000      0x39b ./libs/c-debounce/src/keypad.o
 .comment       0x0000000000000000       0x4a ./libs/c-debounce/src/keypad.o
 .debug_frame   0x0000000000000000       0x50 ./libs/c-debounce/src/keypad.o
 .ARM.attributes
                0x0000000000000000       0x30 ./libs/c-debounce/src/keypad.o
 .text          0x0000000000000000        0x0 ./libs/c-debounce/src/pulsecounter.o
 .data          0x0000000000000000        0x0 ./libs/c-debounce/src/pulsecounter.o
 .bss           0x0000000000000000        0x0 ./libs/c-debounce/src/pulsecounter.o
 .text.pulse_level
                0x0000000000000000       0x14 ./libs/c-debounce/src/pulsecounter.o
 .data          0x0000000000000000        0x0 /home/maldus/Local/renesas/e2_studio/toolchains/gcc_arm/10_3_2021_10/gcc-arm-none-eabi-10.3-2021.10/bin/../lib/gcc/arm-none-eabi/10.3.1/thumb/v8-m.base/nofp/libgcc.a(_clzsi2.o)
 .bss           0x0000000000000000        0x0 /home/maldus/Local/renesas/e2_studio/toolchains/gcc_arm/10_3_2021_10/gcc-arm-none-eabi-10.3-2021.10/bin/../lib/gcc/arm-none-eabi/10.3.1/thumb/v8-m.base/nofp/libgcc.a(_clzsi2.o)
 .text          0x0000000000000000       0x48 /home/maldus/Local/renesas/e2_studio/toolchains/gcc_arm/10_3_2021_10/gcc-arm-none-eabi-10.3-2021.10/bin/../lib/gcc/arm-none-eabi/10.3.1/thumb/v8-m.base/nofp/libgcc.a(_aeabi_ldivmod.o)
 .data          0x0000000000000000        0x0 /home/maldus/Local/renesas/e2_studio/toolchains/gcc_arm/10_3_2021_10/gcc-arm-none-eabi-10.3-2021.10/bin/../lib/gcc/arm-none-eabi/10.3.1/thumb/v8-m.base/nofp/libgcc.a(_aeabi_ldivmod.o)
 .bss           0x0000000000000000        0x0 /home/maldus/Local/renesas/e2_studio/toolchains/gcc_arm/10_3_2021_10/gcc-arm-none-eabi-10.3-2021.10/bin/../lib/gcc/arm-none-eabi/10.3.1/thumb/v8-m.base/nofp/libgcc.a(_aeabi_ldivmod.o)
 .ARM.attributes
                0x0000000000000000       0x22 /home/maldus/Local/renesas/e2_studio/toolchains/gcc_arm/10_3_2021_10/gcc-arm-none-eabi-10.3-2021.10/bin/../lib/gcc/arm-none-eabi/10.3.1/thumb/v8-m.base/nofp/libgcc.a(_aeabi_ldivmod.o)
 .data          0x0000000000000000        0x0 /home/maldus/Local/renesas/e2_studio/toolchains/gcc_arm/10_3_2021_10/gcc-arm-none-eabi-10.3-2021.10/bin/../lib/gcc/arm-none-eabi/10.3.1/thumb/v8-m.base/nofp/libgcc.a(_aeabi_uldivmod.o)
 .bss           0x0000000000000000        0x0 /home/maldus/Local/renesas/e2_studio/toolchains/gcc_arm/10_3_2021_10/gcc-arm-none-eabi-10.3-2021.10/bin/../lib/gcc/arm-none-eabi/10.3.1/thumb/v8-m.base/nofp/libgcc.a(_aeabi_uldivmod.o)
 .data          0x0000000000000000        0x0 /home/maldus/Local/renesas/e2_studio/toolchains/gcc_arm/10_3_2021_10/gcc-arm-none-eabi-10.3-2021.10/bin/../lib/gcc/arm-none-eabi/10.3.1/thumb/v8-m.base/nofp/libgcc.a(_muldi3.o)
 .bss           0x0000000000000000        0x0 /home/maldus/Local/renesas/e2_studio/toolchains/gcc_arm/10_3_2021_10/gcc-arm-none-eabi-10.3-2021.10/bin/../lib/gcc/arm-none-eabi/10.3.1/thumb/v8-m.base/nofp/libgcc.a(_muldi3.o)
 .data          0x0000000000000000        0x0 /home/maldus/Local/renesas/e2_studio/toolchains/gcc_arm/10_3_2021_10/gcc-arm-none-eabi-10.3-2021.10/bin/../lib/gcc/arm-none-eabi/10.3.1/thumb/v8-m.base/nofp/libgcc.a(_udivmoddi4.o)
 .bss           0x0000000000000000        0x0 /home/maldus/Local/renesas/e2_studio/toolchains/gcc_arm/10_3_2021_10/gcc-arm-none-eabi-10.3-2021.10/bin/../lib/gcc/arm-none-eabi/10.3.1/thumb/v8-m.base/nofp/libgcc.a(_udivmoddi4.o)
 .ARM.extab     0x0000000000000000        0x0 /home/maldus/Local/renesas/e2_studio/toolchains/gcc_arm/10_3_2021_10/gcc-arm-none-eabi-10.3-2021.10/bin/../lib/gcc/arm-none-eabi/10.3.1/thumb/v8-m.base/nofp/libgcc.a(_udivmoddi4.o)
 .ARM.exidx     0x0000000000000000        0x8 /home/maldus/Local/renesas/e2_studio/toolchains/gcc_arm/10_3_2021_10/gcc-arm-none-eabi-10.3-2021.10/bin/../lib/gcc/arm-none-eabi/10.3.1/thumb/v8-m.base/nofp/libgcc.a(_udivmoddi4.o)
 .text          0x0000000000000000       0x3c /home/maldus/Local/renesas/e2_studio/toolchains/gcc_arm/10_3_2021_10/gcc-arm-none-eabi-10.3-2021.10/bin/../lib/gcc/arm-none-eabi/10.3.1/thumb/v8-m.base/nofp/libgcc.a(bpabi.o)
 .data          0x0000000000000000        0x0 /home/maldus/Local/renesas/e2_studio/toolchains/gcc_arm/10_3_2021_10/gcc-arm-none-eabi-10.3-2021.10/bin/../lib/gcc/arm-none-eabi/10.3.1/thumb/v8-m.base/nofp/libgcc.a(bpabi.o)
 .bss           0x0000000000000000        0x0 /home/maldus/Local/renesas/e2_studio/toolchains/gcc_arm/10_3_2021_10/gcc-arm-none-eabi-10.3-2021.10/bin/../lib/gcc/arm-none-eabi/10.3.1/thumb/v8-m.base/nofp/libgcc.a(bpabi.o)
 .debug_frame   0x0000000000000000       0x38 /home/maldus/Local/renesas/e2_studio/toolchains/gcc_arm/10_3_2021_10/gcc-arm-none-eabi-10.3-2021.10/bin/../lib/gcc/arm-none-eabi/10.3.1/thumb/v8-m.base/nofp/libgcc.a(bpabi.o)
 .ARM.attributes
                0x0000000000000000       0x30 /home/maldus/Local/renesas/e2_studio/toolchains/gcc_arm/10_3_2021_10/gcc-arm-none-eabi-10.3-2021.10/bin/../lib/gcc/arm-none-eabi/10.3.1/thumb/v8-m.base/nofp/libgcc.a(bpabi.o)
 .data          0x0000000000000000        0x0 /home/maldus/Local/renesas/e2_studio/toolchains/gcc_arm/10_3_2021_10/gcc-arm-none-eabi-10.3-2021.10/bin/../lib/gcc/arm-none-eabi/10.3.1/thumb/v8-m.base/nofp/libgcc.a(_dvmd_tls.o)
 .bss           0x0000000000000000        0x0 /home/maldus/Local/renesas/e2_studio/toolchains/gcc_arm/10_3_2021_10/gcc-arm-none-eabi-10.3-2021.10/bin/../lib/gcc/arm-none-eabi/10.3.1/thumb/v8-m.base/nofp/libgcc.a(_dvmd_tls.o)
 .text          0x0000000000000000      0x32c /home/maldus/Local/renesas/e2_studio/toolchains/gcc_arm/10_3_2021_10/gcc-arm-none-eabi-10.3-2021.10/bin/../lib/gcc/arm-none-eabi/10.3.1/thumb/v8-m.base/nofp/libgcc.a(_divdi3.o)
 .data          0x0000000000000000        0x0 /home/maldus/Local/renesas/e2_studio/toolchains/gcc_arm/10_3_2021_10/gcc-arm-none-eabi-10.3-2021.10/bin/../lib/gcc/arm-none-eabi/10.3.1/thumb/v8-m.base/nofp/libgcc.a(_divdi3.o)
 .bss           0x0000000000000000        0x0 /home/maldus/Local/renesas/e2_studio/toolchains/gcc_arm/10_3_2021_10/gcc-arm-none-eabi-10.3-2021.10/bin/../lib/gcc/arm-none-eabi/10.3.1/thumb/v8-m.base/nofp/libgcc.a(_divdi3.o)
 .ARM.extab     0x0000000000000000        0x0 /home/maldus/Local/renesas/e2_studio/toolchains/gcc_arm/10_3_2021_10/gcc-arm-none-eabi-10.3-2021.10/bin/../lib/gcc/arm-none-eabi/10.3.1/thumb/v8-m.base/nofp/libgcc.a(_divdi3.o)
 .ARM.exidx     0x0000000000000000        0x8 /home/maldus/Local/renesas/e2_studio/toolchains/gcc_arm/10_3_2021_10/gcc-arm-none-eabi-10.3-2021.10/bin/../lib/gcc/arm-none-eabi/10.3.1/thumb/v8-m.base/nofp/libgcc.a(_divdi3.o)
 .debug_frame   0x0000000000000000       0x3c /home/maldus/Local/renesas/e2_studio/toolchains/gcc_arm/10_3_2021_10/gcc-arm-none-eabi-10.3-2021.10/bin/../lib/gcc/arm-none-eabi/10.3.1/thumb/v8-m.base/nofp/libgcc.a(_divdi3.o)
 .ARM.attributes
                0x0000000000000000       0x30 /home/maldus/Local/renesas/e2_studio/toolchains/gcc_arm/10_3_2021_10/gcc-arm-none-eabi-10.3-2021.10/bin/../lib/gcc/arm-none-eabi/10.3.1/thumb/v8-m.base/nofp/libgcc.a(_divdi3.o)
 .text          0x0000000000000000        0x0 /home/maldus/Local/renesas/e2_studio/toolchains/gcc_arm/10_3_2021_10/gcc-arm-none-eabi-10.3-2021.10/bin/../lib/gcc/arm-none-eabi/10.3.1/../../../../arm-none-eabi/lib/thumb/v8-m.base/nofp/libg_nano.a(lib_a-errno.o)
 .data          0x0000000000000000        0x0 /home/maldus/Local/renesas/e2_studio/toolchains/gcc_arm/10_3_2021_10/gcc-arm-none-eabi-10.3-2021.10/bin/../lib/gcc/arm-none-eabi/10.3.1/../../../../arm-none-eabi/lib/thumb/v8-m.base/nofp/libg_nano.a(lib_a-errno.o)
 .bss           0x0000000000000000        0x0 /home/maldus/Local/renesas/e2_studio/toolchains/gcc_arm/10_3_2021_10/gcc-arm-none-eabi-10.3-2021.10/bin/../lib/gcc/arm-none-eabi/10.3.1/../../../../arm-none-eabi/lib/thumb/v8-m.base/nofp/libg_nano.a(lib_a-errno.o)
 .text          0x0000000000000000        0x0 /home/maldus/Local/renesas/e2_studio/toolchains/gcc_arm/10_3_2021_10/gcc-arm-none-eabi-10.3-2021.10/bin/../lib/gcc/arm-none-eabi/10.3.1/../../../../arm-none-eabi/lib/thumb/v8-m.base/nofp/libg_nano.a(lib_a-exit.o)
 .data          0x0000000000000000        0x0 /home/maldus/Local/renesas/e2_studio/toolchains/gcc_arm/10_3_2021_10/gcc-arm-none-eabi-10.3-2021.10/bin/../lib/gcc/arm-none-eabi/10.3.1/../../../../arm-none-eabi/lib/thumb/v8-m.base/nofp/libg_nano.a(lib_a-exit.o)
 .bss           0x0000000000000000        0x0 /home/maldus/Local/renesas/e2_studio/toolchains/gcc_arm/10_3_2021_10/gcc-arm-none-eabi-10.3-2021.10/bin/../lib/gcc/arm-none-eabi/10.3.1/../../../../arm-none-eabi/lib/thumb/v8-m.base/nofp/libg_nano.a(lib_a-exit.o)
 .text.exit     0x0000000000000000       0x28 /home/maldus/Local/renesas/e2_studio/toolchains/gcc_arm/10_3_2021_10/gcc-arm-none-eabi-10.3-2021.10/bin/../lib/gcc/arm-none-eabi/10.3.1/../../../../arm-none-eabi/lib/thumb/v8-m.base/nofp/libg_nano.a(lib_a-exit.o)
 .debug_frame   0x0000000000000000       0x28 /home/maldus/Local/renesas/e2_studio/toolchains/gcc_arm/10_3_2021_10/gcc-arm-none-eabi-10.3-2021.10/bin/../lib/gcc/arm-none-eabi/10.3.1/../../../../arm-none-eabi/lib/thumb/v8-m.base/nofp/libg_nano.a(lib_a-exit.o)
 .ARM.attributes
                0x0000000000000000       0x30 /home/maldus/Local/renesas/e2_studio/toolchains/gcc_arm/10_3_2021_10/gcc-arm-none-eabi-10.3-2021.10/bin/../lib/gcc/arm-none-eabi/10.3.1/../../../../arm-none-eabi/lib/thumb/v8-m.base/nofp/libg_nano.a(lib_a-exit.o)
 .text          0x0000000000000000        0x0 /home/maldus/Local/renesas/e2_studio/toolchains/gcc_arm/10_3_2021_10/gcc-arm-none-eabi-10.3-2021.10/bin/../lib/gcc/arm-none-eabi/10.3.1/../../../../arm-none-eabi/lib/thumb/v8-m.base/nofp/libg_nano.a(lib_a-impure.o)
 .data          0x0000000000000000        0x0 /home/maldus/Local/renesas/e2_studio/toolchains/gcc_arm/10_3_2021_10/gcc-arm-none-eabi-10.3-2021.10/bin/../lib/gcc/arm-none-eabi/10.3.1/../../../../arm-none-eabi/lib/thumb/v8-m.base/nofp/libg_nano.a(lib_a-impure.o)
 .bss           0x0000000000000000        0x0 /home/maldus/Local/renesas/e2_studio/toolchains/gcc_arm/10_3_2021_10/gcc-arm-none-eabi-10.3-2021.10/bin/../lib/gcc/arm-none-eabi/10.3.1/../../../../arm-none-eabi/lib/thumb/v8-m.base/nofp/libg_nano.a(lib_a-impure.o)
 .rodata._global_impure_ptr
                0x0000000000000000        0x4 /home/maldus/Local/renesas/e2_studio/toolchains/gcc_arm/10_3_2021_10/gcc-arm-none-eabi-10.3-2021.10/bin/../lib/gcc/arm-none-eabi/10.3.1/../../../../arm-none-eabi/lib/thumb/v8-m.base/nofp/libg_nano.a(lib_a-impure.o)
 .text          0x0000000000000000        0x0 /home/maldus/Local/renesas/e2_studio/toolchains/gcc_arm/10_3_2021_10/gcc-arm-none-eabi-10.3-2021.10/bin/../lib/gcc/arm-none-eabi/10.3.1/../../../../arm-none-eabi/lib/thumb/v8-m.base/nofp/libg_nano.a(lib_a-init.o)
 .data          0x0000000000000000        0x0 /home/maldus/Local/renesas/e2_studio/toolchains/gcc_arm/10_3_2021_10/gcc-arm-none-eabi-10.3-2021.10/bin/../lib/gcc/arm-none-eabi/10.3.1/../../../../arm-none-eabi/lib/thumb/v8-m.base/nofp/libg_nano.a(lib_a-init.o)
 .bss           0x0000000000000000        0x0 /home/maldus/Local/renesas/e2_studio/toolchains/gcc_arm/10_3_2021_10/gcc-arm-none-eabi-10.3-2021.10/bin/../lib/gcc/arm-none-eabi/10.3.1/../../../../arm-none-eabi/lib/thumb/v8-m.base/nofp/libg_nano.a(lib_a-init.o)
 .text.__libc_init_array
                0x0000000000000000       0x50 /home/maldus/Local/renesas/e2_studio/toolchains/gcc_arm/10_3_2021_10/gcc-arm-none-eabi-10.3-2021.10/bin/../lib/gcc/arm-none-eabi/10.3.1/../../../../arm-none-eabi/lib/thumb/v8-m.base/nofp/libg_nano.a(lib_a-init.o)
 .debug_frame   0x0000000000000000       0x2c /home/maldus/Local/renesas/e2_studio/toolchains/gcc_arm/10_3_2021_10/gcc-arm-none-eabi-10.3-2021.10/bin/../lib/gcc/arm-none-eabi/10.3.1/../../../../arm-none-eabi/lib/thumb/v8-m.base/nofp/libg_nano.a(lib_a-init.o)
 .ARM.attributes
                0x0000000000000000       0x30 /home/maldus/Local/renesas/e2_studio/toolchains/gcc_arm/10_3_2021_10/gcc-arm-none-eabi-10.3-2021.10/bin/../lib/gcc/arm-none-eabi/10.3.1/../../../../arm-none-eabi/lib/thumb/v8-m.base/nofp/libg_nano.a(lib_a-init.o)
 .text          0x0000000000000000        0x0 /home/maldus/Local/renesas/e2_studio/toolchains/gcc_arm/10_3_2021_10/gcc-arm-none-eabi-10.3-2021.10/bin/../lib/gcc/arm-none-eabi/10.3.1/../../../../arm-none-eabi/lib/thumb/v8-m.base/nofp/libg_nano.a(lib_a-malloc.o)
 .data          0x0000000000000000        0x0 /home/maldus/Local/renesas/e2_studio/toolchains/gcc_arm/10_3_2021_10/gcc-arm-none-eabi-10.3-2021.10/bin/../lib/gcc/arm-none-eabi/10.3.1/../../../../arm-none-eabi/lib/thumb/v8-m.base/nofp/libg_nano.a(lib_a-malloc.o)
 .bss           0x0000000000000000        0x0 /home/maldus/Local/renesas/e2_studio/toolchains/gcc_arm/10_3_2021_10/gcc-arm-none-eabi-10.3-2021.10/bin/../lib/gcc/arm-none-eabi/10.3.1/../../../../arm-none-eabi/lib/thumb/v8-m.base/nofp/libg_nano.a(lib_a-malloc.o)
 .text.malloc   0x0000000000000000       0x14 /home/maldus/Local/renesas/e2_studio/toolchains/gcc_arm/10_3_2021_10/gcc-arm-none-eabi-10.3-2021.10/bin/../lib/gcc/arm-none-eabi/10.3.1/../../../../arm-none-eabi/lib/thumb/v8-m.base/nofp/libg_nano.a(lib_a-malloc.o)
 .text          0x0000000000000000        0x0 /home/maldus/Local/renesas/e2_studio/toolchains/gcc_arm/10_3_2021_10/gcc-arm-none-eabi-10.3-2021.10/bin/../lib/gcc/arm-none-eabi/10.3.1/../../../../arm-none-eabi/lib/thumb/v8-m.base/nofp/libg_nano.a(lib_a-memcmp.o)
 .data          0x0000000000000000        0x0 /home/maldus/Local/renesas/e2_studio/toolchains/gcc_arm/10_3_2021_10/gcc-arm-none-eabi-10.3-2021.10/bin/../lib/gcc/arm-none-eabi/10.3.1/../../../../arm-none-eabi/lib/thumb/v8-m.base/nofp/libg_nano.a(lib_a-memcmp.o)
 .bss           0x0000000000000000        0x0 /home/maldus/Local/renesas/e2_studio/toolchains/gcc_arm/10_3_2021_10/gcc-arm-none-eabi-10.3-2021.10/bin/../lib/gcc/arm-none-eabi/10.3.1/../../../../arm-none-eabi/lib/thumb/v8-m.base/nofp/libg_nano.a(lib_a-memcmp.o)
 .text          0x0000000000000000        0x0 /home/maldus/Local/renesas/e2_studio/toolchains/gcc_arm/10_3_2021_10/gcc-arm-none-eabi-10.3-2021.10/bin/../lib/gcc/arm-none-eabi/10.3.1/../../../../arm-none-eabi/lib/thumb/v8-m.base/nofp/libg_nano.a(lib_a-memcpy-stub.o)
 .data          0x0000000000000000        0x0 /home/maldus/Local/renesas/e2_studio/toolchains/gcc_arm/10_3_2021_10/gcc-arm-none-eabi-10.3-2021.10/bin/../lib/gcc/arm-none-eabi/10.3.1/../../../../arm-none-eabi/lib/thumb/v8-m.base/nofp/libg_nano.a(lib_a-memcpy-stub.o)
 .bss           0x0000000000000000        0x0 /home/maldus/Local/renesas/e2_studio/toolchains/gcc_arm/10_3_2021_10/gcc-arm-none-eabi-10.3-2021.10/bin/../lib/gcc/arm-none-eabi/10.3.1/../../../../arm-none-eabi/lib/thumb/v8-m.base/nofp/libg_nano.a(lib_a-memcpy-stub.o)
 .text          0x0000000000000000        0x0 /home/maldus/Local/renesas/e2_studio/toolchains/gcc_arm/10_3_2021_10/gcc-arm-none-eabi-10.3-2021.10/bin/../lib/gcc/arm-none-eabi/10.3.1/../../../../arm-none-eabi/lib/thumb/v8-m.base/nofp/libg_nano.a(lib_a-memset.o)
 .data          0x0000000000000000        0x0 /home/maldus/Local/renesas/e2_studio/toolchains/gcc_arm/10_3_2021_10/gcc-arm-none-eabi-10.3-2021.10/bin/../lib/gcc/arm-none-eabi/10.3.1/../../../../arm-none-eabi/lib/thumb/v8-m.base/nofp/libg_nano.a(lib_a-memset.o)
 .bss           0x0000000000000000        0x0 /home/maldus/Local/renesas/e2_studio/toolchains/gcc_arm/10_3_2021_10/gcc-arm-none-eabi-10.3-2021.10/bin/../lib/gcc/arm-none-eabi/10.3.1/../../../../arm-none-eabi/lib/thumb/v8-m.base/nofp/libg_nano.a(lib_a-memset.o)
 .text          0x0000000000000000        0x0 /home/maldus/Local/renesas/e2_studio/toolchains/gcc_arm/10_3_2021_10/gcc-arm-none-eabi-10.3-2021.10/bin/../lib/gcc/arm-none-eabi/10.3.1/../../../../arm-none-eabi/lib/thumb/v8-m.base/nofp/libg_nano.a(lib_a-nano-freer.o)
 .data          0x0000000000000000        0x0 /home/maldus/Local/renesas/e2_studio/toolchains/gcc_arm/10_3_2021_10/gcc-arm-none-eabi-10.3-2021.10/bin/../lib/gcc/arm-none-eabi/10.3.1/../../../../arm-none-eabi/lib/thumb/v8-m.base/nofp/libg_nano.a(lib_a-nano-freer.o)
 .bss           0x0000000000000000        0x0 /home/maldus/Local/renesas/e2_studio/toolchains/gcc_arm/10_3_2021_10/gcc-arm-none-eabi-10.3-2021.10/bin/../lib/gcc/arm-none-eabi/10.3.1/../../../../arm-none-eabi/lib/thumb/v8-m.base/nofp/libg_nano.a(lib_a-nano-freer.o)
 .text          0x0000000000000000        0x0 /home/maldus/Local/renesas/e2_studio/toolchains/gcc_arm/10_3_2021_10/gcc-arm-none-eabi-10.3-2021.10/bin/../lib/gcc/arm-none-eabi/10.3.1/../../../../arm-none-eabi/lib/thumb/v8-m.base/nofp/libg_nano.a(lib_a-nano-mallocr.o)
 .data          0x0000000000000000        0x0 /home/maldus/Local/renesas/e2_studio/toolchains/gcc_arm/10_3_2021_10/gcc-arm-none-eabi-10.3-2021.10/bin/../lib/gcc/arm-none-eabi/10.3.1/../../../../arm-none-eabi/lib/thumb/v8-m.base/nofp/libg_nano.a(lib_a-nano-mallocr.o)
 .bss           0x0000000000000000        0x0 /home/maldus/Local/renesas/e2_studio/toolchains/gcc_arm/10_3_2021_10/gcc-arm-none-eabi-10.3-2021.10/bin/../lib/gcc/arm-none-eabi/10.3.1/../../../../arm-none-eabi/lib/thumb/v8-m.base/nofp/libg_nano.a(lib_a-nano-mallocr.o)
 .text          0x0000000000000000        0x0 /home/maldus/Local/renesas/e2_studio/toolchains/gcc_arm/10_3_2021_10/gcc-arm-none-eabi-10.3-2021.10/bin/../lib/gcc/arm-none-eabi/10.3.1/../../../../arm-none-eabi/lib/thumb/v8-m.base/nofp/libg_nano.a(lib_a-realloc.o)
 .data          0x0000000000000000        0x0 /home/maldus/Local/renesas/e2_studio/toolchains/gcc_arm/10_3_2021_10/gcc-arm-none-eabi-10.3-2021.10/bin/../lib/gcc/arm-none-eabi/10.3.1/../../../../arm-none-eabi/lib/thumb/v8-m.base/nofp/libg_nano.a(lib_a-realloc.o)
 .bss           0x0000000000000000        0x0 /home/maldus/Local/renesas/e2_studio/toolchains/gcc_arm/10_3_2021_10/gcc-arm-none-eabi-10.3-2021.10/bin/../lib/gcc/arm-none-eabi/10.3.1/../../../../arm-none-eabi/lib/thumb/v8-m.base/nofp/libg_nano.a(lib_a-realloc.o)
 .text          0x0000000000000000        0x0 /home/maldus/Local/renesas/e2_studio/toolchains/gcc_arm/10_3_2021_10/gcc-arm-none-eabi-10.3-2021.10/bin/../lib/gcc/arm-none-eabi/10.3.1/../../../../arm-none-eabi/lib/thumb/v8-m.base/nofp/libg_nano.a(lib_a-sbrkr.o)
 .data          0x0000000000000000        0x0 /home/maldus/Local/renesas/e2_studio/toolchains/gcc_arm/10_3_2021_10/gcc-arm-none-eabi-10.3-2021.10/bin/../lib/gcc/arm-none-eabi/10.3.1/../../../../arm-none-eabi/lib/thumb/v8-m.base/nofp/libg_nano.a(lib_a-sbrkr.o)
 .bss           0x0000000000000000        0x0 /home/maldus/Local/renesas/e2_studio/toolchains/gcc_arm/10_3_2021_10/gcc-arm-none-eabi-10.3-2021.10/bin/../lib/gcc/arm-none-eabi/10.3.1/../../../../arm-none-eabi/lib/thumb/v8-m.base/nofp/libg_nano.a(lib_a-sbrkr.o)
 .text          0x0000000000000000        0x0 /home/maldus/Local/renesas/e2_studio/toolchains/gcc_arm/10_3_2021_10/gcc-arm-none-eabi-10.3-2021.10/bin/../lib/gcc/arm-none-eabi/10.3.1/../../../../arm-none-eabi/lib/thumb/v8-m.base/nofp/libg_nano.a(lib_a-mlock.o)
 .data          0x0000000000000000        0x0 /home/maldus/Local/renesas/e2_studio/toolchains/gcc_arm/10_3_2021_10/gcc-arm-none-eabi-10.3-2021.10/bin/../lib/gcc/arm-none-eabi/10.3.1/../../../../arm-none-eabi/lib/thumb/v8-m.base/nofp/libg_nano.a(lib_a-mlock.o)
 .bss           0x0000000000000000        0x0 /home/maldus/Local/renesas/e2_studio/toolchains/gcc_arm/10_3_2021_10/gcc-arm-none-eabi-10.3-2021.10/bin/../lib/gcc/arm-none-eabi/10.3.1/../../../../arm-none-eabi/lib/thumb/v8-m.base/nofp/libg_nano.a(lib_a-mlock.o)
 .text          0x0000000000000000        0x0 /home/maldus/Local/renesas/e2_studio/toolchains/gcc_arm/10_3_2021_10/gcc-arm-none-eabi-10.3-2021.10/bin/../lib/gcc/arm-none-eabi/10.3.1/../../../../arm-none-eabi/lib/thumb/v8-m.base/nofp/libg_nano.a(lib_a-nano-reallocr.o)
 .data          0x0000000000000000        0x0 /home/maldus/Local/renesas/e2_studio/toolchains/gcc_arm/10_3_2021_10/gcc-arm-none-eabi-10.3-2021.10/bin/../lib/gcc/arm-none-eabi/10.3.1/../../../../arm-none-eabi/lib/thumb/v8-m.base/nofp/libg_nano.a(lib_a-nano-reallocr.o)
 .bss           0x0000000000000000        0x0 /home/maldus/Local/renesas/e2_studio/toolchains/gcc_arm/10_3_2021_10/gcc-arm-none-eabi-10.3-2021.10/bin/../lib/gcc/arm-none-eabi/10.3.1/../../../../arm-none-eabi/lib/thumb/v8-m.base/nofp/libg_nano.a(lib_a-nano-reallocr.o)
 .text          0x0000000000000000        0x0 /home/maldus/Local/renesas/e2_studio/toolchains/gcc_arm/10_3_2021_10/gcc-arm-none-eabi-10.3-2021.10/bin/../lib/gcc/arm-none-eabi/10.3.1/../../../../arm-none-eabi/lib/thumb/v8-m.base/nofp/libg_nano.a(lib_a-reent.o)
 .data          0x0000000000000000        0x0 /home/maldus/Local/renesas/e2_studio/toolchains/gcc_arm/10_3_2021_10/gcc-arm-none-eabi-10.3-2021.10/bin/../lib/gcc/arm-none-eabi/10.3.1/../../../../arm-none-eabi/lib/thumb/v8-m.base/nofp/libg_nano.a(lib_a-reent.o)
 .bss           0x0000000000000000        0x0 /home/maldus/Local/renesas/e2_studio/toolchains/gcc_arm/10_3_2021_10/gcc-arm-none-eabi-10.3-2021.10/bin/../lib/gcc/arm-none-eabi/10.3.1/../../../../arm-none-eabi/lib/thumb/v8-m.base/nofp/libg_nano.a(lib_a-reent.o)
 .text.cleanup_glue
                0x0000000000000000       0x18 /home/maldus/Local/renesas/e2_studio/toolchains/gcc_arm/10_3_2021_10/gcc-arm-none-eabi-10.3-2021.10/bin/../lib/gcc/arm-none-eabi/10.3.1/../../../../arm-none-eabi/lib/thumb/v8-m.base/nofp/libg_nano.a(lib_a-reent.o)
 .text._reclaim_reent
                0x0000000000000000       0xb0 /home/maldus/Local/renesas/e2_studio/toolchains/gcc_arm/10_3_2021_10/gcc-arm-none-eabi-10.3-2021.10/bin/../lib/gcc/arm-none-eabi/10.3.1/../../../../arm-none-eabi/lib/thumb/v8-m.base/nofp/libg_nano.a(lib_a-reent.o)
 .text          0x0000000000000000        0x0 /home/maldus/Local/renesas/e2_studio/toolchains/gcc_arm/10_3_2021_10/gcc-arm-none-eabi-10.3-2021.10/bin/../lib/gcc/arm-none-eabi/10.3.1/../../../../arm-none-eabi/lib/thumb/v8-m.base/nofp/libg_nano.a(lib_a-lock.o)
 .data          0x0000000000000000        0x0 /home/maldus/Local/renesas/e2_studio/toolchains/gcc_arm/10_3_2021_10/gcc-arm-none-eabi-10.3-2021.10/bin/../lib/gcc/arm-none-eabi/10.3.1/../../../../arm-none-eabi/lib/thumb/v8-m.base/nofp/libg_nano.a(lib_a-lock.o)
 .bss           0x0000000000000000        0x0 /home/maldus/Local/renesas/e2_studio/toolchains/gcc_arm/10_3_2021_10/gcc-arm-none-eabi-10.3-2021.10/bin/../lib/gcc/arm-none-eabi/10.3.1/../../../../arm-none-eabi/lib/thumb/v8-m.base/nofp/libg_nano.a(lib_a-lock.o)
 .text.__retarget_lock_init
                0x0000000000000000        0x2 /home/maldus/Local/renesas/e2_studio/toolchains/gcc_arm/10_3_2021_10/gcc-arm-none-eabi-10.3-2021.10/bin/../lib/gcc/arm-none-eabi/10.3.1/../../../../arm-none-eabi/lib/thumb/v8-m.base/nofp/libg_nano.a(lib_a-lock.o)
 .text.__retarget_lock_init_recursive
                0x0000000000000000        0x2 /home/maldus/Local/renesas/e2_studio/toolchains/gcc_arm/10_3_2021_10/gcc-arm-none-eabi-10.3-2021.10/bin/../lib/gcc/arm-none-eabi/10.3.1/../../../../arm-none-eabi/lib/thumb/v8-m.base/nofp/libg_nano.a(lib_a-lock.o)
 .text.__retarget_lock_close
                0x0000000000000000        0x2 /home/maldus/Local/renesas/e2_studio/toolchains/gcc_arm/10_3_2021_10/gcc-arm-none-eabi-10.3-2021.10/bin/../lib/gcc/arm-none-eabi/10.3.1/../../../../arm-none-eabi/lib/thumb/v8-m.base/nofp/libg_nano.a(lib_a-lock.o)
 .text.__retarget_lock_close_recursive
                0x0000000000000000        0x2 /home/maldus/Local/renesas/e2_studio/toolchains/gcc_arm/10_3_2021_10/gcc-arm-none-eabi-10.3-2021.10/bin/../lib/gcc/arm-none-eabi/10.3.1/../../../../arm-none-eabi/lib/thumb/v8-m.base/nofp/libg_nano.a(lib_a-lock.o)
 .text.__retarget_lock_acquire
                0x0000000000000000        0x2 /home/maldus/Local/renesas/e2_studio/toolchains/gcc_arm/10_3_2021_10/gcc-arm-none-eabi-10.3-2021.10/bin/../lib/gcc/arm-none-eabi/10.3.1/../../../../arm-none-eabi/lib/thumb/v8-m.base/nofp/libg_nano.a(lib_a-lock.o)
 .text.__retarget_lock_try_acquire
                0x0000000000000000        0x4 /home/maldus/Local/renesas/e2_studio/toolchains/gcc_arm/10_3_2021_10/gcc-arm-none-eabi-10.3-2021.10/bin/../lib/gcc/arm-none-eabi/10.3.1/../../../../arm-none-eabi/lib/thumb/v8-m.base/nofp/libg_nano.a(lib_a-lock.o)
 .text.__retarget_lock_try_acquire_recursive
                0x0000000000000000        0x4 /home/maldus/Local/renesas/e2_studio/toolchains/gcc_arm/10_3_2021_10/gcc-arm-none-eabi-10.3-2021.10/bin/../lib/gcc/arm-none-eabi/10.3.1/../../../../arm-none-eabi/lib/thumb/v8-m.base/nofp/libg_nano.a(lib_a-lock.o)
 .text.__retarget_lock_release
                0x0000000000000000        0x2 /home/maldus/Local/renesas/e2_studio/toolchains/gcc_arm/10_3_2021_10/gcc-arm-none-eabi-10.3-2021.10/bin/../lib/gcc/arm-none-eabi/10.3.1/../../../../arm-none-eabi/lib/thumb/v8-m.base/nofp/libg_nano.a(lib_a-lock.o)
 .bss.__lock___arc4random_mutex
                0x0000000000000000        0x1 /home/maldus/Local/renesas/e2_studio/toolchains/gcc_arm/10_3_2021_10/gcc-arm-none-eabi-10.3-2021.10/bin/../lib/gcc/arm-none-eabi/10.3.1/../../../../arm-none-eabi/lib/thumb/v8-m.base/nofp/libg_nano.a(lib_a-lock.o)
 .bss.__lock___at_quick_exit_mutex
                0x0000000000000000        0x1 /home/maldus/Local/renesas/e2_studio/toolchains/gcc_arm/10_3_2021_10/gcc-arm-none-eabi-10.3-2021.10/bin/../lib/gcc/arm-none-eabi/10.3.1/../../../../arm-none-eabi/lib/thumb/v8-m.base/nofp/libg_nano.a(lib_a-lock.o)
 .bss.__lock___atexit_recursive_mutex
                0x0000000000000000        0x1 /home/maldus/Local/renesas/e2_studio/toolchains/gcc_arm/10_3_2021_10/gcc-arm-none-eabi-10.3-2021.10/bin/../lib/gcc/arm-none-eabi/10.3.1/../../../../arm-none-eabi/lib/thumb/v8-m.base/nofp/libg_nano.a(lib_a-lock.o)
 .bss.__lock___dd_hash_mutex
                0x0000000000000000        0x1 /home/maldus/Local/renesas/e2_studio/toolchains/gcc_arm/10_3_2021_10/gcc-arm-none-eabi-10.3-2021.10/bin/../lib/gcc/arm-none-eabi/10.3.1/../../../../arm-none-eabi/lib/thumb/v8-m.base/nofp/libg_nano.a(lib_a-lock.o)
 .bss.__lock___env_recursive_mutex
                0x0000000000000000        0x1 /home/maldus/Local/renesas/e2_studio/toolchains/gcc_arm/10_3_2021_10/gcc-arm-none-eabi-10.3-2021.10/bin/../lib/gcc/arm-none-eabi/10.3.1/../../../../arm-none-eabi/lib/thumb/v8-m.base/nofp/libg_nano.a(lib_a-lock.o)
 .bss.__lock___sfp_recursive_mutex
                0x0000000000000000        0x1 /home/maldus/Local/renesas/e2_studio/toolchains/gcc_arm/10_3_2021_10/gcc-arm-none-eabi-10.3-2021.10/bin/../lib/gcc/arm-none-eabi/10.3.1/../../../../arm-none-eabi/lib/thumb/v8-m.base/nofp/libg_nano.a(lib_a-lock.o)
 .bss.__lock___sinit_recursive_mutex
                0x0000000000000000        0x1 /home/maldus/Local/renesas/e2_studio/toolchains/gcc_arm/10_3_2021_10/gcc-arm-none-eabi-10.3-2021.10/bin/../lib/gcc/arm-none-eabi/10.3.1/../../../../arm-none-eabi/lib/thumb/v8-m.base/nofp/libg_nano.a(lib_a-lock.o)
 .bss.__lock___tz_mutex
                0x0000000000000000        0x1 /home/maldus/Local/renesas/e2_studio/toolchains/gcc_arm/10_3_2021_10/gcc-arm-none-eabi-10.3-2021.10/bin/../lib/gcc/arm-none-eabi/10.3.1/../../../../arm-none-eabi/lib/thumb/v8-m.base/nofp/libg_nano.a(lib_a-lock.o)
 .text          0x0000000000000000        0x0 /home/maldus/Local/renesas/e2_studio/toolchains/gcc_arm/10_3_2021_10/gcc-arm-none-eabi-10.3-2021.10/bin/../lib/gcc/arm-none-eabi/10.3.1/../../../../arm-none-eabi/lib/thumb/v8-m.base/nofp/libg_nano.a(lib_a-nano-msizer.o)
 .data          0x0000000000000000        0x0 /home/maldus/Local/renesas/e2_studio/toolchains/gcc_arm/10_3_2021_10/gcc-arm-none-eabi-10.3-2021.10/bin/../lib/gcc/arm-none-eabi/10.3.1/../../../../arm-none-eabi/lib/thumb/v8-m.base/nofp/libg_nano.a(lib_a-nano-msizer.o)
 .bss           0x0000000000000000        0x0 /home/maldus/Local/renesas/e2_studio/toolchains/gcc_arm/10_3_2021_10/gcc-arm-none-eabi-10.3-2021.10/bin/../lib/gcc/arm-none-eabi/10.3.1/../../../../arm-none-eabi/lib/thumb/v8-m.base/nofp/libg_nano.a(lib_a-nano-msizer.o)
 .text          0x0000000000000000        0x0 /home/maldus/Local/renesas/e2_studio/toolchains/gcc_arm/10_3_2021_10/gcc-arm-none-eabi-10.3-2021.10/bin/../lib/gcc/arm-none-eabi/10.3.1/thumb/v8-m.base/nofp/crtend.o
 .data          0x0000000000000000        0x0 /home/maldus/Local/renesas/e2_studio/toolchains/gcc_arm/10_3_2021_10/gcc-arm-none-eabi-10.3-2021.10/bin/../lib/gcc/arm-none-eabi/10.3.1/thumb/v8-m.base/nofp/crtend.o
 .bss           0x0000000000000000        0x0 /home/maldus/Local/renesas/e2_studio/toolchains/gcc_arm/10_3_2021_10/gcc-arm-none-eabi-10.3-2021.10/bin/../lib/gcc/arm-none-eabi/10.3.1/thumb/v8-m.base/nofp/crtend.o
 .rodata        0x0000000000000000       0x24 /home/maldus/Local/renesas/e2_studio/toolchains/gcc_arm/10_3_2021_10/gcc-arm-none-eabi-10.3-2021.10/bin/../lib/gcc/arm-none-eabi/10.3.1/thumb/v8-m.base/nofp/crtend.o
 .text          0x0000000000000000        0x0 /home/maldus/Local/renesas/e2_studio/toolchains/gcc_arm/10_3_2021_10/gcc-arm-none-eabi-10.3-2021.10/bin/../lib/gcc/arm-none-eabi/10.3.1/thumb/v8-m.base/nofp/crtn.o
 .data          0x0000000000000000        0x0 /home/maldus/Local/renesas/e2_studio/toolchains/gcc_arm/10_3_2021_10/gcc-arm-none-eabi-10.3-2021.10/bin/../lib/gcc/arm-none-eabi/10.3.1/thumb/v8-m.base/nofp/crtn.o
 .bss           0x0000000000000000        0x0 /home/maldus/Local/renesas/e2_studio/toolchains/gcc_arm/10_3_2021_10/gcc-arm-none-eabi-10.3-2021.10/bin/../lib/gcc/arm-none-eabi/10.3.1/thumb/v8-m.base/nofp/crtn.o

Memory Configuration

Name             Origin             Length             Attributes
ITCM             0x0000000000000000 0x0000000000000000 xr
DTCM             0x0000000000000000 0x0000000000000000 xrw
FLASH            0x0000000000000000 0x0000000000040000 xr
RAM              0x0000000020000000 0x0000000000008000 xrw
DATA_FLASH       0x0000000040100000 0x0000000000002000 xr
QSPI_FLASH       0x0000000060000000 0x0000000000000000 xr
OSPI_DEVICE_0    0x0000000080020000 0x0000000000000000 xr
OSPI_DEVICE_1    0x0000000080030000 0x0000000000000000 xr
OSPI_DEVICE_0_RAM 0x0000000080020000 0x0000000000000000 xrw
OSPI_DEVICE_1_RAM 0x0000000080030000 0x0000000000000000 xrw
SDRAM            0x0000000080010000 0x0000000000000000 xrw
OPTION_SETTING   0x0000000000000000 0x0000000000000000 r
OPTION_SETTING_OFS 0x0000000000000000 0x0000000000000018 r
OPTION_SETTING_SAS 0x0000000000000034 0x0000000000000000 r
OPTION_SETTING_S 0x0000000080000000 0x0000000000000000 r
ID_CODE          0x0000000001010018 0x0000000000000020 xr
*default*        0x0000000000000000 0xffffffffffffffff

Linker script and memory map

LOAD /home/maldus/Local/renesas/e2_studio/toolchains/gcc_arm/10_3_2021_10/gcc-arm-none-eabi-10.3-2021.10/bin/../lib/gcc/arm-none-eabi/10.3.1/thumb/v8-m.base/nofp/crti.o
LOAD /home/maldus/Local/renesas/e2_studio/toolchains/gcc_arm/10_3_2021_10/gcc-arm-none-eabi-10.3-2021.10/bin/../lib/gcc/arm-none-eabi/10.3.1/thumb/v8-m.base/nofp/crtbegin.o
LOAD /home/maldus/Local/renesas/e2_studio/toolchains/gcc_arm/10_3_2021_10/gcc-arm-none-eabi-10.3-2021.10/bin/../lib/gcc/arm-none-eabi/10.3.1/../../../../arm-none-eabi/lib/thumb/v8-m.base/nofp/crt0.o
START GROUP
LOAD ./src/services/crc16-ccitt.o
LOAD ./src/model/cycle.o
LOAD ./src/model/heating.o
LOAD ./src/model/model.o
LOAD ./src/controller/controller.o
LOAD ./src/controller/observer.o
LOAD ./src/bsp/adc.o
LOAD ./src/bsp/coin_reader.o
LOAD ./src/bsp/digin.o
LOAD ./src/bsp/heartbit.o
LOAD ./src/bsp/power_off.o
LOAD ./src/bsp/pwm.o
LOAD ./src/bsp/relay.o
LOAD ./src/bsp/rs232.o
LOAD ./src/bsp/spi.o
LOAD ./src/bsp/system.o
LOAD ./src/bsp/temperature_humidity_probe.o
LOAD ./src/adapters/modbus_server.o
LOAD ./src/hal_entry.o
LOAD ./ra_gen/common_data.o
LOAD ./ra_gen/hal_data.o
LOAD ./ra_gen/main.o
LOAD ./ra_gen/pin_data.o
LOAD ./ra_gen/vector_data.o
LOAD ./ra/fsp/src/rm_vee_flash/rm_vee_flash.o
LOAD ./ra/fsp/src/r_sci_uart/r_sci_uart.o
LOAD ./ra/fsp/src/r_ioport/r_ioport.o
LOAD ./ra/fsp/src/r_icu/r_icu.o
LOAD ./ra/fsp/src/r_gpt/r_gpt.o
LOAD ./ra/fsp/src/r_flash_lp/r_flash_lp.o
LOAD ./ra/fsp/src/r_adc/r_adc.o
LOAD ./ra/fsp/src/bsp/mcu/ra2l1/bsp_power.o
LOAD ./ra/fsp/src/bsp/mcu/all/bsp_clocks.o
LOAD ./ra/fsp/src/bsp/mcu/all/bsp_common.o
LOAD ./ra/fsp/src/bsp/mcu/all/bsp_delay.o
LOAD ./ra/fsp/src/bsp/mcu/all/bsp_group_irq.o
LOAD ./ra/fsp/src/bsp/mcu/all/bsp_guard.o
LOAD ./ra/fsp/src/bsp/mcu/all/bsp_io.o
LOAD ./ra/fsp/src/bsp/mcu/all/bsp_irq.o
LOAD ./ra/fsp/src/bsp/mcu/all/bsp_macl.o
LOAD ./ra/fsp/src/bsp/mcu/all/bsp_register_protection.o
LOAD ./ra/fsp/src/bsp/mcu/all/bsp_rom_registers.o
LOAD ./ra/fsp/src/bsp/mcu/all/bsp_sbrk.o
LOAD ./ra/fsp/src/bsp/mcu/all/bsp_sdram.o
LOAD ./ra/fsp/src/bsp/mcu/all/bsp_security.o
LOAD ./ra/fsp/src/bsp/cmsis/Device/RENESAS/Source/startup.o
LOAD ./ra/fsp/src/bsp/cmsis/Device/RENESAS/Source/system.o
LOAD ./libs/c-watcher/src/watcher.o
LOAD ./libs/c-stopwatch/src/stopwatch.o
LOAD ./libs/c-stopwatch/src/stopwatch_timer.o
LOAD ./libs/c-debounce/src/debounce.o
LOAD ./libs/c-debounce/src/keypad.o
LOAD ./libs/c-debounce/src/pulsecounter.o
END GROUP
START GROUP
LOAD /home/maldus/Local/renesas/e2_studio/toolchains/gcc_arm/10_3_2021_10/gcc-arm-none-eabi-10.3-2021.10/bin/../lib/gcc/arm-none-eabi/10.3.1/thumb/v8-m.base/nofp/libgcc.a
LOAD /home/maldus/Local/renesas/e2_studio/toolchains/gcc_arm/10_3_2021_10/gcc-arm-none-eabi-10.3-2021.10/bin/../lib/gcc/arm-none-eabi/10.3.1/../../../../arm-none-eabi/lib/thumb/v8-m.base/nofp/libg_nano.a
LOAD /home/maldus/Local/renesas/e2_studio/toolchains/gcc_arm/10_3_2021_10/gcc-arm-none-eabi-10.3-2021.10/bin/../lib/gcc/arm-none-eabi/10.3.1/../../../../arm-none-eabi/lib/thumb/v8-m.base/nofp/libc_nano.a
END GROUP
START GROUP
LOAD /home/maldus/Local/renesas/e2_studio/toolchains/gcc_arm/10_3_2021_10/gcc-arm-none-eabi-10.3-2021.10/bin/../lib/gcc/arm-none-eabi/10.3.1/thumb/v8-m.base/nofp/libgcc.a
LOAD /home/maldus/Local/renesas/e2_studio/toolchains/gcc_arm/10_3_2021_10/gcc-arm-none-eabi-10.3-2021.10/bin/../lib/gcc/arm-none-eabi/10.3.1/../../../../arm-none-eabi/lib/thumb/v8-m.base/nofp/libc_nano.a
END GROUP
LOAD /home/maldus/Local/renesas/e2_studio/toolchains/gcc_arm/10_3_2021_10/gcc-arm-none-eabi-10.3-2021.10/bin/../lib/gcc/arm-none-eabi/10.3.1/thumb/v8-m.base/nofp/crtend.o
LOAD /home/maldus/Local/renesas/e2_studio/toolchains/gcc_arm/10_3_2021_10/gcc-arm-none-eabi-10.3-2021.10/bin/../lib/gcc/arm-none-eabi/10.3.1/thumb/v8-m.base/nofp/crtn.o
                0x0000000020000000                RAM_START = 0x20000000
                0x0000000000008000                RAM_LENGTH = 0x8000
                0x0000000000000000                FLASH_START = 0x0
                0x0000000000040000                FLASH_LENGTH = 0x40000
                0x0000000040100000                DATA_FLASH_START = 0x40100000
                0x0000000000002000                DATA_FLASH_LENGTH = 0x2000
                0x0000000000000000                OPTION_SETTING_START = 0x0
                0x0000000000000000                OPTION_SETTING_LENGTH = 0x0
                0x0000000080000000                OPTION_SETTING_S_START = 0x80000000
                0x0000000000000000                OPTION_SETTING_S_LENGTH = 0x0
                0x0000000001010018                ID_CODE_START = 0x1010018
                0x0000000000000020                ID_CODE_LENGTH = 0x20
                0x0000000080010000                SDRAM_START = 0x80010000
                0x0000000000000000                SDRAM_LENGTH = 0x0
                0x0000000060000000                QSPI_FLASH_START = 0x60000000
                0x0000000000000000                QSPI_FLASH_LENGTH = 0x0
                0x0000000080020000                OSPI_DEVICE_0_START = 0x80020000
                0x0000000000000000                OSPI_DEVICE_0_LENGTH = 0x0
                0x0000000080030000                OSPI_DEVICE_1_START = 0x80030000
                0x0000000000000000                OSPI_DEVICE_1_LENGTH = 0x0
                0x0000000000000000                QSPI_FLASH_PRV_LENGTH = DEFINED (QSPI_FLASH_SIZE)?ABSOLUTE (QSPI_FLASH_SIZE):ABSOLUTE (QSPI_FLASH_LENGTH)
                0x0000000000000000                OSPI_DEVICE_0_PRV_LENGTH = DEFINED (OSPI_DEVICE_0_SIZE)?ABSOLUTE (OSPI_DEVICE_0_SIZE):ABSOLUTE (OSPI_DEVICE_0_LENGTH)
                0x0000000000000000                OSPI_DEVICE_1_PRV_LENGTH = DEFINED (OSPI_DEVICE_1_SIZE)?ABSOLUTE (OSPI_DEVICE_1_SIZE):ABSOLUTE (OSPI_DEVICE_1_LENGTH)
                0x0000000000000000                __RESERVE_NS_RAM = ((! (DEFINED (PROJECT_NONSECURE)) && DEFINED (RAM_NS_BUFFER_LENGTH)) && (OPTION_SETTING_S_LENGTH != 0x0))
                0x0000000000000000                ITCM_START = DEFINED (ITCM_START)?ITCM_START:0x0
                0x0000000000000000                ITCM_LENGTH = DEFINED (ITCM_LENGTH)?ITCM_LENGTH:0x0
                0x0000000000000000                DTCM_START = DEFINED (DTCM_START)?DTCM_START:0x0
                0x0000000000000000                DTCM_LENGTH = DEFINED (DTCM_LENGTH)?DTCM_LENGTH:0x0
                0x0000000000000000                RAM_NS_BUFFER_BLOCK_LENGTH = DEFINED (RAM_NS_BUFFER_LENGTH)?ALIGN (RAM_NS_BUFFER_LENGTH, 0x2000):0x0
                0x0000000000000000                RAM_NS_BUFFER_LENGTH = DEFINED (RAM_NS_BUFFER_LENGTH)?RAM_NS_BUFFER_LENGTH:0x0
                0x0000000020008000                RAM_NS_BUFFER_START = ((RAM_START + RAM_LENGTH) - RAM_NS_BUFFER_LENGTH)
                0x0000000020008000                RAM_NS_BUFFER_BLOCK_START = ((RAM_START + RAM_LENGTH) - RAM_NS_BUFFER_BLOCK_LENGTH)
                0x0000000000000080                OPTION_SETTING_START_NS = DEFINED (PROJECT_NONSECURE)?OPTION_SETTING_START:(OPTION_SETTING_START + 0x80)
                0x0000000000000001                __bl_FSP_BOOTABLE_IMAGE = 0x1
                0x0000000000000001                __bln_FSP_BOOTABLE_IMAGE = 0x1
                0x0000000000000000                PROJECT_SECURE_OR_FLAT = (((! (DEFINED (PROJECT_NONSECURE)) || DEFINED (PROJECT_SECURE)) && OPTION_SETTING_LENGTH) && ! (DEFINED (FSP_BOOTABLE_IMAGE)))
                0x0000000000000000                USE_OPTION_SETTING_NS = (DEFINED (PROJECT_NONSECURE) && ! (DEFINED (FSP_BOOTABLE_IMAGE)))
                0x0000000000000000                __bl_FLASH_IMAGE_START = ! (DEFINED (FLASH_BOOTLOADER_LENGTH))?0x0:(FLASH_APPLICATION_IMAGE_NUMBER == 0x1)?((FLASH_START + FLASH_BOOTLOADER_LENGTH) + FLASH_BOOTLOADER_HEADER_LENGTH):(DEFINED (BOOTLOADER_SECONDARY_USE_QSPI) || DEFINED (BOOTLOADER_SECONDARY_USE_OSPI_B))?(((FLASH_START + FLASH_BOOTLOADER_LENGTH) + FLASH_BOOTLOADER_SCRATCH_LENGTH) + FLASH_BOOTLOADER_HEADER_LENGTH):((((FLASH_START + FLASH_BOOTLOADER_LENGTH) + FLASH_BOOTLOADER_SCRATCH_LENGTH) + FLASH_APPLICATION_S_LENGTH) + FLASH_BOOTLOADER_HEADER_LENGTH)
                0x0000000000000000                __bl_FLASH_IMAGE_LENGTH = ! (DEFINED (FLASH_BOOTLOADER_LENGTH))?0x0:(FLASH_APPLICATION_S_LENGTH - FLASH_BOOTLOADER_HEADER_LENGTH)
                0x0000000000000000                __bl_FLASH_IMAGE_END = (__bl_FLASH_IMAGE_START + __bl_FLASH_IMAGE_LENGTH)
                0x0000000000000000                __bl_XIP_SECONDARY_FLASH_IMAGE_START = ! (DEFINED (FLASH_BOOTLOADER_LENGTH))?0x0:((FLASH_BOOTLOADER_LENGTH + FLASH_APPLICATION_S_LENGTH) + FLASH_BOOTLOADER_HEADER_LENGTH)
                0x0000000000000000                __bl_XIP_SECONDARY_FLASH_IMAGE_END = (__bl_XIP_SECONDARY_FLASH_IMAGE_START + __bl_FLASH_IMAGE_LENGTH)
                0x0000000000000000                __bl_FLASH_NS_START = ! (DEFINED (FLASH_BOOTLOADER_LENGTH))?0x0:(FLASH_APPLICATION_NS_LENGTH == 0x0)?__bl_FLASH_IMAGE_END:((__bl_FLASH_IMAGE_START - FLASH_BOOTLOADER_HEADER_LENGTH) + FLASH_APPLICATION_S_LENGTH)
                0x0000000000000000                __bl_FLASH_NSC_START = ! (DEFINED (FLASH_BOOTLOADER_LENGTH))?0x0:(FLASH_APPLICATION_NS_LENGTH == 0x0)?__bl_FLASH_IMAGE_END:(__bl_FLASH_IMAGE_END - FLASH_APPLICATION_NSC_LENGTH)
                0x0000000000000000                __bl_RAM_NS_START = ! (DEFINED (FLASH_BOOTLOADER_LENGTH))?0x0:(FLASH_APPLICATION_NS_LENGTH == 0x0)?(RAM_START + RAM_LENGTH):((RAM_START + RAM_LENGTH) - RAM_APPLICATION_NS_LENGTH)
                0x0000000000000000                __bl_RAM_NSC_START = ! (DEFINED (FLASH_BOOTLOADER_LENGTH))?0x0:(FLASH_APPLICATION_NS_LENGTH == 0x0)?(RAM_START + RAM_LENGTH):(__bl_RAM_NS_START - RAM_APPLICATION_NSC_LENGTH)
                0x0000000000000000                __bl_FLASH_NS_IMAGE_START = ! (DEFINED (FLASH_BOOTLOADER_LENGTH))?0x0:(FLASH_APPLICATION_NS_LENGTH == 0x0)?__bl_FLASH_IMAGE_END:(__bl_FLASH_NS_START + FLASH_BOOTLOADER_HEADER_LENGTH_2)
                0x0000000000000000                __bln_FLASH_IMAGE_START = (__bl_FLASH_NS_IMAGE_START | ! (DEFINED (NS_OFFSET_START))?0x0:NS_OFFSET_START)
                0x0000000000000000                __bln_FLASH_IMAGE_LENGTH = ! (DEFINED (FLASH_BOOTLOADER_LENGTH))?0x0:(FLASH_APPLICATION_NS_LENGTH == 0x0)?__bl_FLASH_IMAGE_END:(FLASH_APPLICATION_NS_LENGTH - FLASH_BOOTLOADER_HEADER_LENGTH_2)
                0x0000000000000000                XIP_SECONDARY_SLOT_IMAGE = DEFINED (XIP_SECONDARY_SLOT_IMAGE)?XIP_SECONDARY_SLOT_IMAGE:0x0
                0x0000000000000000                FLASH_ORIGIN = ! (DEFINED (FLASH_IMAGE_START))?FLASH_START:(XIP_SECONDARY_SLOT_IMAGE == 0x1)?XIP_SECONDARY_FLASH_IMAGE_START:FLASH_IMAGE_START
                0x0000000000040000                LIMITED_FLASH_LENGTH = DEFINED (FLASH_IMAGE_LENGTH)?FLASH_IMAGE_LENGTH:DEFINED (FLASH_BOOTLOADER_LENGTH)?FLASH_BOOTLOADER_LENGTH:FLASH_LENGTH
                0x0000000000000034                OPTION_SETTING_SAS_SIZE = 0x34
                0x0000000000000000                OPTION_SETTING_SAS_LENGTH = ! (DEFINED (OPTION_SETTING_LENGTH))?0x0:(OPTION_SETTING_LENGTH == 0x0)?0x0:(OPTION_SETTING_LENGTH - OPTION_SETTING_SAS_SIZE)
START GROUP
LOAD /home/maldus/Local/renesas/e2_studio/toolchains/gcc_arm/10_3_2021_10/gcc-arm-none-eabi-10.3-2021.10/bin/../lib/gcc/arm-none-eabi/10.3.1/thumb/v8-m.base/nofp/libgcc.a
LOAD /home/maldus/Local/renesas/e2_studio/toolchains/gcc_arm/10_3_2021_10/gcc-arm-none-eabi-10.3-2021.10/bin/../lib/gcc/arm-none-eabi/10.3.1/../../../../arm-none-eabi/lib/thumb/v8-m.base/nofp/libc.a
LOAD /home/maldus/Local/renesas/e2_studio/toolchains/gcc_arm/10_3_2021_10/gcc-arm-none-eabi-10.3-2021.10/bin/../lib/gcc/arm-none-eabi/10.3.1/../../../../arm-none-eabi/lib/thumb/v8-m.base/nofp/libm.a
END GROUP

.text           0x0000000000000000     0x7a90
                0x0000000000000000                __tz_FLASH_S = ABSOLUTE (FLASH_START)
                0x0000000000000000                __ROM_Start = .
 *(.fixed_vectors*)
 .fixed_vectors
                0x0000000000000000       0x40 ./ra/fsp/src/bsp/cmsis/Device/RENESAS/Source/startup.o
                0x0000000000000000                __Vectors
 *(.application_vectors*)
 .application_vectors
                0x0000000000000040       0x80 ./ra_gen/vector_data.o
                0x0000000000000040                g_vector_table
                0x00000000000000c0                __Vectors_End = .
 *(.flash_gap*)
                0x0000000000000400                . = (OPTION_SETTING_LENGTH > 0x0)?.:(__ROM_Start + 0x400)
 *fill*         0x00000000000000c0      0x340 ff
 *(.rom_registers*)
 .rom_registers
                0x0000000000000400       0x3c ./ra/fsp/src/bsp/mcu/all/bsp_rom_registers.o
 *(.mcuboot_sce9_key*)
 *(.text*)
 .text          0x000000000000043c       0x50 /home/maldus/Local/renesas/e2_studio/toolchains/gcc_arm/10_3_2021_10/gcc-arm-none-eabi-10.3-2021.10/bin/../lib/gcc/arm-none-eabi/10.3.1/thumb/v8-m.base/nofp/crtbegin.o
 .text.crc16_ccitt
                0x000000000000048c       0x2a ./src/services/crc16-ccitt.o
                0x000000000000048c                crc16_ccitt
 .text.paused_exit
                0x00000000000004b6       0x14 ./src/model/cycle.o
 .text.fix_timer
                0x00000000000004ca       0x2c ./src/model/cycle.o
 .text.paused_entry
                0x00000000000004f6       0x72 ./src/model/cycle.o
 .text.configure_temperature_timer
                0x0000000000000568       0x1c ./src/model/cycle.o
 .text.start_everything
                0x0000000000000584       0x74 ./src/model/cycle.o
 .text.paused_event_manager
                0x00000000000005f8       0x44 ./src/model/cycle.o
 .text.running_event_manager
                0x000000000000063c      0x130 ./src/model/cycle.o
 .text.standby_event_manager
                0x000000000000076c      0x10c ./src/model/cycle.o
 .text.wait_start_event_manager
                0x0000000000000878       0x98 ./src/model/cycle.o
 .text.stop_everything
                0x0000000000000910       0x82 ./src/model/cycle.o
 .text.stopped_entry
                0x0000000000000992        0x8 ./src/model/cycle.o
 .text.stopped_event_manager
                0x000000000000099a       0xa6 ./src/model/cycle.o
 .text.cycle_send_event
                0x0000000000000a40       0x4c ./src/model/cycle.o
                0x0000000000000a40                cycle_send_event
 .text.timer_event_callback
                0x0000000000000a8c       0x10 ./src/model/cycle.o
 .text.cycle_init
                0x0000000000000a9c       0x5c ./src/model/cycle.o
                0x0000000000000a9c                cycle_init
 .text.cycle_manage
                0x0000000000000af8       0x38 ./src/model/cycle.o
                0x0000000000000af8                cycle_manage
 .text.cycle_change_remaining_time
                0x0000000000000b30       0x44 ./src/model/cycle.o
                0x0000000000000b30                cycle_change_remaining_time
 .text.cycle_cold_start
                0x0000000000000b74       0x18 ./src/model/cycle.o
                0x0000000000000b74                cycle_cold_start
 .text.cycle_check
                0x0000000000000b8c       0x10 ./src/model/cycle.o
                0x0000000000000b8c                cycle_check
 .text.cycle_increase_duration
                0x0000000000000b9c       0x2e ./src/model/cycle.o
                0x0000000000000b9c                cycle_increase_duration
 .text.setpoint_reached_event_manager
                0x0000000000000bca       0x38 ./src/model/heating.o
 .text.on_event_manager
                0x0000000000000c02       0x38 ./src/model/heating.o
 .text.off_event_manager
                0x0000000000000c3a       0x2c ./src/model/heating.o
 .text.on_entry
                0x0000000000000c66        0xe ./src/model/heating.o
 .text.on_exit  0x0000000000000c74       0x1c ./src/model/heating.o
 .text.heating_send_event
                0x0000000000000c90       0x4c ./src/model/heating.o
                0x0000000000000c90                heating_send_event
 .text.heating_init
                0x0000000000000cdc       0x14 ./src/model/heating.o
                0x0000000000000cdc                heating_init
 .text.heating_manage
                0x0000000000000cf0        0xe ./src/model/heating.o
                0x0000000000000cf0                heating_manage
 .text.heating_on
                0x0000000000000cfe        0xe ./src/model/heating.o
                0x0000000000000cfe                heating_on
 .text.heating_off
                0x0000000000000d0c        0xe ./src/model/heating.o
                0x0000000000000d0c                heating_off
 .text.ptc_temperature_from_adc_value
                0x0000000000000d1a       0x2e ./src/model/model.o
 .text.is_input_active
                0x0000000000000d48       0x20 ./src/model/model.o
 .text.get_pwm_drum_percentage
                0x0000000000000d68       0x3e ./src/model/model.o
 .text.set_drum_timestamp
                0x0000000000000da6       0x16 ./src/model/model.o
 .text.communication_is_missing
                0x0000000000000dbc       0x18 ./src/model/model.o
 .text.model_init
                0x0000000000000dd4       0x48 ./src/model/model.o
                0x0000000000000dd4                model_init
 .text.model_is_inverter_alarm_active
                0x0000000000000e1c       0x2e ./src/model/model.o
                0x0000000000000e1c                model_is_inverter_alarm_active
 .text.model_is_emergency_alarm_active
                0x0000000000000e4a       0x2e ./src/model/model.o
                0x0000000000000e4a                model_is_emergency_alarm_active
 .text.model_is_filter_alarm_active
                0x0000000000000e78       0x2e ./src/model/model.o
                0x0000000000000e78                model_is_filter_alarm_active
 .text.model_is_porthole_open
                0x0000000000000ea6       0x2e ./src/model/model.o
                0x0000000000000ea6                model_is_porthole_open
 .text.model_cycle_resume
                0x0000000000000ed4       0x10 ./src/model/model.o
                0x0000000000000ed4                model_cycle_resume
 .text.model_cycle_pause
                0x0000000000000ee4       0x10 ./src/model/model.o
                0x0000000000000ee4                model_cycle_pause
 .text.model_cycle_stop
                0x0000000000000ef4       0x10 ./src/model/model.o
                0x0000000000000ef4                model_cycle_stop
 .text.model_get_step_duration_seconds
                0x0000000000000f04       0x32 ./src/model/model.o
                0x0000000000000f04                model_get_step_duration_seconds
 *fill*         0x0000000000000f36        0x2 ff
 .text.model_is_step_endless
                0x0000000000000f38       0x38 ./src/model/model.o
                0x0000000000000f38                model_is_step_endless
 .text.model_get_cycle_remaining_time
                0x0000000000000f70       0x2a ./src/model/model.o
                0x0000000000000f70                model_get_cycle_remaining_time
 .text.model_is_cycle_on
                0x0000000000000f9a       0x30 ./src/model/model.o
                0x0000000000000f9a                model_is_cycle_on
 .text.model_update_sensors
                0x0000000000000fca       0xac ./src/model/model.o
                0x0000000000000fca                model_update_sensors
 .text.model_pwoff_deserialize
                0x0000000000001076      0x176 ./src/model/model.o
                0x0000000000001076                model_pwoff_deserialize
 .text.model_clear_coins
                0x00000000000011ec       0x30 ./src/model/model.o
                0x00000000000011ec                model_clear_coins
 .text.model_heating_enabled
                0x000000000000121c       0x2e ./src/model/model.o
                0x000000000000121c                model_heating_enabled
 .text.model_ciclo_continuo
                0x000000000000124a       0x3c ./src/model/model.o
                0x000000000000124a                model_ciclo_continuo
 .text.model_ciclo_fermo
                0x0000000000001286       0x2e ./src/model/model.o
                0x0000000000001286                model_ciclo_fermo
 .text.model_get_elapsed_seconds
                0x00000000000012b4       0x5a ./src/model/model.o
                0x00000000000012b4                model_get_elapsed_seconds
 .text.model_get_remaining_seconds
                0x000000000000130e       0x5a ./src/model/model.o
                0x000000000000130e                model_get_remaining_seconds
 .text.model_get_setpoint
                0x0000000000001368       0x2a ./src/model/model.o
                0x0000000000001368                model_get_setpoint
 .text.model_get_default_temperature
                0x0000000000001392       0x6e ./src/model/model.o
                0x0000000000001392                model_get_default_temperature
 .text.model_add_work_time_ms
                0x0000000000001400       0x36 ./src/model/model.o
                0x0000000000001400                model_add_work_time_ms
 .text.model_add_rotation_time_ms
                0x0000000000001436       0x36 ./src/model/model.o
                0x0000000000001436                model_add_rotation_time_ms
 .text.model_add_ventilation_time_ms
                0x000000000000146c       0x36 ./src/model/model.o
                0x000000000000146c                model_add_ventilation_time_ms
 .text.model_add_heating_time_ms
                0x00000000000014a2       0x36 ./src/model/model.o
                0x00000000000014a2                model_add_heating_time_ms
 .text.model_over_safety_temperature
                0x00000000000014d8       0x3a ./src/model/model.o
                0x00000000000014d8                model_over_safety_temperature
 .text.model_drum_forward
                0x0000000000001512       0x3a ./src/model/model.o
                0x0000000000001512                model_drum_forward
 .text.model_drum_backward
                0x000000000000154c       0x3a ./src/model/model.o
                0x000000000000154c                model_drum_backward
 .text.model_drum_stop
                0x0000000000001586       0x4e ./src/model/model.o
                0x0000000000001586                model_drum_stop
 .text.model_is_drum_running_forward
                0x00000000000015d4       0x32 ./src/model/model.o
                0x00000000000015d4                model_is_drum_running_forward
 .text.model_is_cycle_active
                0x0000000000001606       0x40 ./src/model/model.o
                0x0000000000001606                model_is_cycle_active
 .text.model_pwoff_serialize
                0x0000000000001646      0x152 ./src/model/model.o
                0x0000000000001646                model_pwoff_serialize
 .text.model_is_fan_on
                0x0000000000001798       0x5c ./src/model/model.o
                0x0000000000001798                model_is_fan_on
 .text.model_get_active_alarms
                0x00000000000017f4       0xde ./src/model/model.o
                0x00000000000017f4                model_get_active_alarms
 .text.model_fix_alarms
                0x00000000000018d2       0x66 ./src/model/model.o
                0x00000000000018d2                model_fix_alarms
 .text.model_clear_alarms
                0x0000000000001938       0x36 ./src/model/model.o
                0x0000000000001938                model_clear_alarms
 .text.model_get_relay_map
                0x000000000000196e       0xd2 ./src/model/model.o
                0x000000000000196e                model_get_relay_map
 .text.get_pwm_fan_percentage
                0x0000000000001a40       0x3c ./src/model/model.o
 .text.model_get_pwm_drum_percentage
                0x0000000000001a7c       0x46 ./src/model/model.o
                0x0000000000001a7c                model_get_pwm_drum_percentage
 .text.model_get_pwm_fan_percentage
                0x0000000000001ac2       0x46 ./src/model/model.o
                0x0000000000001ac2                model_get_pwm_fan_percentage
 .text.model_manage
                0x0000000000001b08      0x160 ./src/model/model.o
                0x0000000000001b08                model_manage
 .text.model_reset_burner
                0x0000000000001c68       0x3e ./src/model/model.o
                0x0000000000001c68                model_reset_burner
 .text.model_cycles_exceeded
                0x0000000000001ca6       0x42 ./src/model/model.o
                0x0000000000001ca6                model_cycles_exceeded
 .text.model_cycle_over
                0x0000000000001ce8       0x60 ./src/model/model.o
                0x0000000000001ce8                model_cycle_over
 .text.controller_init
                0x0000000000001d48       0x38 ./src/controller/controller.o
                0x0000000000001d48                controller_init
 .text.controller_manage
                0x0000000000001d80       0xb6 ./src/controller/controller.o
                0x0000000000001d80                controller_manage
 .text.controller_power_off
                0x0000000000001e36       0x3c ./src/controller/controller.o
                0x0000000000001e36                controller_power_off
 .text.update_coin_reader_inhibit
                0x0000000000001e72        0xa ./src/controller/observer.o
 .text.update_alarms
                0x0000000000001e7c       0x18 ./src/controller/observer.o
 .text.update_pwm
                0x0000000000001e94       0x1c ./src/controller/observer.o
 .text.refresh_relays
                0x0000000000001eb0       0x22 ./src/controller/observer.o
 .text.update_relays
                0x0000000000001ed2       0x12 ./src/controller/observer.o
 .text.observer_manage
                0x0000000000001ee4       0x3a ./src/controller/observer.o
                0x0000000000001ee4                observer_manage
 .text.observer_init
                0x0000000000001f1e       0xaa ./src/controller/observer.o
                0x0000000000001f1e                observer_init
 .text.bsp_adc_init
                0x0000000000001fc8       0x7e ./src/bsp/adc.o
                0x0000000000001fc8                bsp_adc_init
 .text.bsp_adc_manage
                0x0000000000002046       0xa2 ./src/bsp/adc.o
                0x0000000000002046                bsp_adc_manage
 .text.bsp_adc_get
                0x00000000000020e8       0x38 ./src/bsp/adc.o
                0x00000000000020e8                bsp_adc_get
 .text.bsp_adc_callback
                0x0000000000002120        0x2 ./src/bsp/adc.o
                0x0000000000002120                bsp_adc_callback
 .text.bsp_coin_reader_enable
                0x0000000000002122       0x2e ./src/bsp/coin_reader.o
                0x0000000000002122                bsp_coin_reader_enable
 .text.bsp_coin_reader_init
                0x0000000000002150       0x1a ./src/bsp/coin_reader.o
                0x0000000000002150                bsp_coin_reader_init
 .text.bsp_coin_reader_manage
                0x000000000000216a       0x86 ./src/bsp/coin_reader.o
                0x000000000000216a                bsp_coin_reader_manage
 .text.bsp_coin_reader_read
                0x00000000000021f0       0x1c ./src/bsp/coin_reader.o
                0x00000000000021f0                bsp_coin_reader_read
 .text.bsp_coin_reader_clear
                0x000000000000220c       0x26 ./src/bsp/coin_reader.o
                0x000000000000220c                bsp_coin_reader_clear
 .text.bsp_digin_init
                0x0000000000002232       0x10 ./src/bsp/digin.o
                0x0000000000002232                bsp_digin_init
 .text.bsp_digin_is_ready
                0x0000000000002242       0x14 ./src/bsp/digin.o
                0x0000000000002242                bsp_digin_is_ready
 .text.bsp_digin_manage
                0x0000000000002256       0xa6 ./src/bsp/digin.o
                0x0000000000002256                bsp_digin_manage
 .text.bsp_digin_get_bitmap
                0x00000000000022fc        0xc ./src/bsp/digin.o
                0x00000000000022fc                bsp_digin_get_bitmap
 .text.bsp_heartbit_manage
                0x0000000000002308       0xac ./src/bsp/heartbit.o
                0x0000000000002308                bsp_heartbit_manage
 .text.power_off_callback
                0x00000000000023b4       0x22 ./src/bsp/power_off.o
                0x00000000000023b4                power_off_callback
 .text.bsp_power_off_init
                0x00000000000023d6       0xb4 ./src/bsp/power_off.o
                0x00000000000023d6                bsp_power_off_init
 .text.bsp_power_off_save
                0x000000000000248a       0x36 ./src/bsp/power_off.o
                0x000000000000248a                bsp_power_off_save
 .text.bsp_power_off_load
                0x00000000000024c0       0x1e ./src/bsp/power_off.o
                0x00000000000024c0                bsp_power_off_load
 .text.vee_callback
                0x00000000000024de        0xe ./src/bsp/power_off.o
                0x00000000000024de                vee_callback
 .text.bsp_pwm_init
                0x00000000000024ec       0x5e ./src/bsp/pwm.o
                0x00000000000024ec                bsp_pwm_init
 .text.bsp_pwm_update
                0x000000000000254a       0x5e ./src/bsp/pwm.o
                0x000000000000254a                bsp_pwm_update
 .text.bsp_relay_update
                0x00000000000025a8       0x36 ./src/bsp/relay.o
                0x00000000000025a8                bsp_relay_update
 .text.bsp_rs232_init
                0x00000000000025de       0x16 ./src/bsp/rs232.o
                0x00000000000025de                bsp_rs232_init
 .text.bsp_rs232_write
                0x00000000000025f4       0x1a ./src/bsp/rs232.o
                0x00000000000025f4                bsp_rs232_write
 .text.bsp_rs232_read
                0x000000000000260e       0x26 ./src/bsp/rs232.o
                0x000000000000260e                bsp_rs232_read
 .text.bsp_rs232_flush
                0x0000000000002634        0xe ./src/bsp/rs232.o
                0x0000000000002634                bsp_rs232_flush
 .text.rs232_callback
                0x0000000000002642       0x50 ./src/bsp/rs232.o
                0x0000000000002642                rs232_callback
 .text.bsp_rs232_timed_out
                0x0000000000002692       0x1c ./src/bsp/rs232.o
                0x0000000000002692                bsp_rs232_timed_out
 .text.spi_master_exchange
                0x00000000000026ae       0xac ./src/bsp/spi.o
                0x00000000000026ae                spi_master_exchange
 .text.SysTick_Handler
                0x000000000000275a       0x10 ./src/bsp/system.o
                0x000000000000275a                SysTick_Handler
 .text.bsp_system_init
                0x000000000000276a       0x56 ./src/bsp/system.o
                0x000000000000276a                bsp_system_init
 .text.bsp_system_get_millis
                0x00000000000027c0        0xc ./src/bsp/system.o
                0x00000000000027c0                bsp_system_get_millis
 .text.crc8_ccitt
                0x00000000000027cc       0x1e ./src/bsp/temperature_humidity_probe.o
 .text.temperature_humidity_probe_read
                0x00000000000027ea       0x88 ./src/bsp/temperature_humidity_probe.o
                0x00000000000027ea                temperature_humidity_probe_read
 .text.static_allocator
                0x0000000000002872       0x28 ./src/adapters/modbus_server.o
 .text.exception_callback
                0x000000000000289a        0x4 ./src/adapters/modbus_server.o
 *fill*         0x000000000000289e        0x2 ff
 .text.register_callback
                0x00000000000028a0      0x42c ./src/adapters/modbus_server.o
 .text.modbusBufferInit
                0x0000000000002ccc       0x12 ./src/adapters/modbus_server.o
                0x0000000000002ccc                modbusBufferInit
 .text.modbusBufferAllocateADU
                0x0000000000002cde       0x34 ./src/adapters/modbus_server.o
                0x0000000000002cde                modbusBufferAllocateADU
 .text.modbusBufferFree
                0x0000000000002d12        0xc ./src/adapters/modbus_server.o
                0x0000000000002d12                modbusBufferFree
 *fill*         0x0000000000002d1e        0x2 ff
 .text.modbusCRC
                0x0000000000002d20       0x3c ./src/adapters/modbus_server.o
                0x0000000000002d20                modbusCRC
 .text.modbusSlaveInit
                0x0000000000002d5c       0x1e ./src/adapters/modbus_server.o
                0x0000000000002d5c                modbusSlaveInit
 .text.modbusBuildException
                0x0000000000002d7a       0x32 ./src/adapters/modbus_server.o
                0x0000000000002d7a                modbusBuildException
 .text.modbusParseRequest01020304
                0x0000000000002dac      0x1a2 ./src/adapters/modbus_server.o
                0x0000000000002dac                modbusParseRequest01020304
 .text.modbusParseRequest1516
                0x0000000000002f4e      0x1b2 ./src/adapters/modbus_server.o
                0x0000000000002f4e                modbusParseRequest1516
 .text.modbusParseRequest
                0x0000000000003100       0x34 ./src/adapters/modbus_server.o
                0x0000000000003100                modbusParseRequest
 .text.modbusParseRequestRTU
                0x0000000000003134       0xe0 ./src/adapters/modbus_server.o
                0x0000000000003134                modbusParseRequestRTU
 .text.modbus_server_init
                0x0000000000003214       0x6e ./src/adapters/modbus_server.o
                0x0000000000003214                modbus_server_init
 .text.modbus_server_manage
                0x0000000000003282       0x7a ./src/adapters/modbus_server.o
                0x0000000000003282                modbus_server_manage
 .text.hal_entry
                0x00000000000032fc       0x86 ./src/hal_entry.o
                0x00000000000032fc                hal_entry
 .text.R_BSP_WarmStart
                0x0000000000003382       0x2e ./src/hal_entry.o
                0x0000000000003382                R_BSP_WarmStart
 .text.main     0x00000000000033b0        0xa ./ra_gen/main.o
                0x00000000000033b0                main
 .text.RM_VEE_FLASH_RecordPtrGet
                0x00000000000033ba       0x20 ./ra/fsp/src/rm_vee_flash/rm_vee_flash.o
                0x00000000000033ba                RM_VEE_FLASH_RecordPtrGet
 .text.rm_vee_call_callback
                0x00000000000033da       0x3a ./ra/fsp/src/rm_vee_flash/rm_vee_flash.o
 .text.rm_vee_flash_err_handle
                0x0000000000003414       0x16 ./ra/fsp/src/rm_vee_flash/rm_vee_flash.o
 .text.rm_vee_get_next_id
                0x000000000000342a       0x30 ./ra/fsp/src/rm_vee_flash/rm_vee_flash.o
 .text.rm_vee_write_seg_hdr
                0x000000000000345a       0x2a ./ra/fsp/src/rm_vee_flash/rm_vee_flash.o
 .text.rm_vee_state_get
                0x0000000000003484       0x1e ./ra/fsp/src/rm_vee_flash/rm_vee_flash.o
 .text.rm_vee_blocking_blankcheck
                0x00000000000034a2       0x80 ./ra/fsp/src/rm_vee_flash/rm_vee_flash.o
 .text.rm_vee_load_record_table
                0x0000000000003522       0xa2 ./ra/fsp/src/rm_vee_flash/rm_vee_flash.o
 .text.rm_vee_blocking_erase
                0x00000000000035c4       0x66 ./ra/fsp/src/rm_vee_flash/rm_vee_flash.o
 .text.rm_vee_blocking_erase_segment
                0x000000000000362a       0x16 ./ra/fsp/src/rm_vee_flash/rm_vee_flash.o
 .text.rm_vee_blocking_write
                0x0000000000003640       0x64 ./ra/fsp/src/rm_vee_flash/rm_vee_flash.o
 .text.rm_vee_inspect_segments
                0x00000000000036a4      0x100 ./ra/fsp/src/rm_vee_flash/rm_vee_flash.o
 .text.rm_vee_internal_open
                0x00000000000037a4       0x54 ./ra/fsp/src/rm_vee_flash/rm_vee_flash.o
 .text.rm_vee_restore_previous_seg
                0x00000000000037f8       0x26 ./ra/fsp/src/rm_vee_flash/rm_vee_flash.o
 .text.rm_vee_init_record_xfer
                0x000000000000381e       0x60 ./ra/fsp/src/rm_vee_flash/rm_vee_flash.o
 .text.rm_vee_xfer_next_chunk
                0x000000000000387e       0x68 ./ra/fsp/src/rm_vee_flash/rm_vee_flash.o
 .text.rm_vee_start_seg_refresh
                0x00000000000038e6       0xa4 ./ra/fsp/src/rm_vee_flash/rm_vee_flash.o
 *fill*         0x000000000000398a        0x2 ff
 .text.RM_VEE_FLASH_Open
                0x000000000000398c      0x108 ./ra/fsp/src/rm_vee_flash/rm_vee_flash.o
                0x000000000000398c                RM_VEE_FLASH_Open
 .text.rm_vee_internal_write_rec
                0x0000000000003a94       0x5e ./ra/fsp/src/rm_vee_flash/rm_vee_flash.o
 .text.RM_VEE_FLASH_RecordWrite
                0x0000000000003af2       0x16 ./ra/fsp/src/rm_vee_flash/rm_vee_flash.o
                0x0000000000003af2                RM_VEE_FLASH_RecordWrite
 .text.RM_VEE_FLASH_Refresh
                0x0000000000003b08       0x22 ./ra/fsp/src/rm_vee_flash/rm_vee_flash.o
                0x0000000000003b08                RM_VEE_FLASH_Refresh
 .text.rm_vee_refresh_next_data_source
                0x0000000000003b2a       0x36 ./ra/fsp/src/rm_vee_flash/rm_vee_flash.o
 .text.rm_vee_flash_callback
                0x0000000000003b60      0x248 ./ra/fsp/src/rm_vee_flash/rm_vee_flash.o
                0x0000000000003b60                rm_vee_flash_callback
 .text.R_SCI_UART_Read
                0x0000000000003da8        0x8 ./ra/fsp/src/r_sci_uart/r_sci_uart.o
                0x0000000000003da8                R_SCI_UART_Read
 .text.R_SCI_UART_Write
                0x0000000000003db0       0x50 ./ra/fsp/src/r_sci_uart/r_sci_uart.o
                0x0000000000003db0                R_SCI_UART_Write
 .text.R_SCI_UART_CallbackSet
                0x0000000000003e00        0xa ./ra/fsp/src/r_sci_uart/r_sci_uart.o
                0x0000000000003e00                R_SCI_UART_CallbackSet
 .text.R_SCI_UART_InfoGet
                0x0000000000003e0a        0xc ./ra/fsp/src/r_sci_uart/r_sci_uart.o
                0x0000000000003e0a                R_SCI_UART_InfoGet
 .text.R_SCI_UART_Abort
                0x0000000000003e16       0x28 ./ra/fsp/src/r_sci_uart/r_sci_uart.o
                0x0000000000003e16                R_SCI_UART_Abort
 .text.R_SCI_UART_ReadStop
                0x0000000000003e3e        0xc ./ra/fsp/src/r_sci_uart/r_sci_uart.o
                0x0000000000003e3e                R_SCI_UART_ReadStop
 .text.r_sci_uart_baud_set
                0x0000000000003e4a       0x2a ./ra/fsp/src/r_sci_uart/r_sci_uart.o
 .text.r_sci_uart_config_set
                0x0000000000003e74       0x98 ./ra/fsp/src/r_sci_uart/r_sci_uart.o
 .text.R_SCI_UART_BaudSet
                0x0000000000003f0c       0x24 ./ra/fsp/src/r_sci_uart/r_sci_uart.o
                0x0000000000003f0c                R_SCI_UART_BaudSet
 .text.r_sci_uart_call_callback
                0x0000000000003f30       0x44 ./ra/fsp/src/r_sci_uart/r_sci_uart.o
 .text.R_SCI_UART_Close
                0x0000000000003f74       0x60 ./ra/fsp/src/r_sci_uart/r_sci_uart.o
                0x0000000000003f74                R_SCI_UART_Close
 .text.r_sci_irq_cfg
                0x0000000000003fd4       0x20 ./ra/fsp/src/r_sci_uart/r_sci_uart.o
 .text.r_sci_irqs_cfg
                0x0000000000003ff4       0x36 ./ra/fsp/src/r_sci_uart/r_sci_uart.o
 .text.R_SCI_UART_Open
                0x000000000000402a      0x100 ./ra/fsp/src/r_sci_uart/r_sci_uart.o
                0x000000000000402a                R_SCI_UART_Open
 *fill*         0x000000000000412a        0x2 ff
 .text.sci_uart_txi_isr
                0x000000000000412c       0x90 ./ra/fsp/src/r_sci_uart/r_sci_uart.o
                0x000000000000412c                sci_uart_txi_isr
 .text.sci_uart_rxi_isr
                0x00000000000041bc       0x8c ./ra/fsp/src/r_sci_uart/r_sci_uart.o
                0x00000000000041bc                sci_uart_rxi_isr
 .text.sci_uart_tei_isr
                0x0000000000004248       0x38 ./ra/fsp/src/r_sci_uart/r_sci_uart.o
                0x0000000000004248                sci_uart_tei_isr
 .text.sci_uart_eri_isr
                0x0000000000004280       0x66 ./ra/fsp/src/r_sci_uart/r_sci_uart.o
                0x0000000000004280                sci_uart_eri_isr
 .text.R_IOPORT_Close
                0x00000000000042e6        0x8 ./ra/fsp/src/r_ioport/r_ioport.o
                0x00000000000042e6                R_IOPORT_Close
 .text.R_IOPORT_PinRead
                0x00000000000042ee       0x22 ./ra/fsp/src/r_ioport/r_ioport.o
                0x00000000000042ee                R_IOPORT_PinRead
 .text.R_IOPORT_PortRead
                0x0000000000004310       0x16 ./ra/fsp/src/r_ioport/r_ioport.o
                0x0000000000004310                R_IOPORT_PortRead
 .text.R_IOPORT_PortWrite
                0x0000000000004326       0x1e ./ra/fsp/src/r_ioport/r_ioport.o
                0x0000000000004326                R_IOPORT_PortWrite
 .text.R_IOPORT_PinWrite
                0x0000000000004344       0x2c ./ra/fsp/src/r_ioport/r_ioport.o
                0x0000000000004344                R_IOPORT_PinWrite
 .text.R_IOPORT_PortDirectionSet
                0x0000000000004370       0x24 ./ra/fsp/src/r_ioport/r_ioport.o
                0x0000000000004370                R_IOPORT_PortDirectionSet
 .text.R_IOPORT_PortEventInputRead
                0x0000000000004394       0x18 ./ra/fsp/src/r_ioport/r_ioport.o
                0x0000000000004394                R_IOPORT_PortEventInputRead
 .text.R_IOPORT_PinEventInputRead
                0x00000000000043ac       0x30 ./ra/fsp/src/r_ioport/r_ioport.o
                0x00000000000043ac                R_IOPORT_PinEventInputRead
 .text.R_IOPORT_PortEventOutputWrite
                0x00000000000043dc       0x1e ./ra/fsp/src/r_ioport/r_ioport.o
                0x00000000000043dc                R_IOPORT_PortEventOutputWrite
 .text.r_ioport_hw_pin_event_output_data_write
                0x00000000000043fa       0x2a ./ra/fsp/src/r_ioport/r_ioport.o
 .text.R_IOPORT_PinEventOutputWrite
                0x0000000000004424       0x12 ./ra/fsp/src/r_ioport/r_ioport.o
                0x0000000000004424                R_IOPORT_PinEventOutputWrite
 *fill*         0x0000000000004436        0x2 ff
 .text.r_ioport_pfs_write
                0x0000000000004438       0x44 ./ra/fsp/src/r_ioport/r_ioport.o
 .text.r_ioport_pins_config
                0x000000000000447c       0xa0 ./ra/fsp/src/r_ioport/r_ioport.o
 .text.R_IOPORT_Open
                0x000000000000451c       0x16 ./ra/fsp/src/r_ioport/r_ioport.o
                0x000000000000451c                R_IOPORT_Open
 .text.R_IOPORT_PinsCfg
                0x0000000000004532        0xc ./ra/fsp/src/r_ioport/r_ioport.o
                0x0000000000004532                R_IOPORT_PinsCfg
 .text.R_IOPORT_PinCfg
                0x000000000000453e       0x7a ./ra/fsp/src/r_ioport/r_ioport.o
                0x000000000000453e                R_IOPORT_PinCfg
 .text.R_ICU_ExternalIrqOpen
                0x00000000000045b8       0x68 ./ra/fsp/src/r_icu/r_icu.o
                0x00000000000045b8                R_ICU_ExternalIrqOpen
 .text.R_ICU_ExternalIrqEnable
                0x0000000000004620        0xe ./ra/fsp/src/r_icu/r_icu.o
                0x0000000000004620                R_ICU_ExternalIrqEnable
 .text.r_icu_isr
                0x000000000000462e       0x5c ./ra/fsp/src/r_icu/r_icu.o
                0x000000000000462e                r_icu_isr
 .text.R_GPT_Start
                0x000000000000468a        0xa ./ra/fsp/src/r_gpt/r_gpt.o
                0x000000000000468a                R_GPT_Start
 .text.gpt_common_open
                0x0000000000004694       0x2e ./ra/fsp/src/r_gpt/r_gpt.o
 .text.gpt_hardware_events_disable
                0x00000000000046c2       0x1c ./ra/fsp/src/r_gpt/r_gpt.o
 .text.gpt_calculate_duty_cycle
                0x00000000000046de       0x64 ./ra/fsp/src/r_gpt/r_gpt.o
 *fill*         0x0000000000004742        0x2 ff
 .text.R_GPT_DutyCycleSet
                0x0000000000004744       0xb8 ./ra/fsp/src/r_gpt/r_gpt.o
                0x0000000000004744                R_GPT_DutyCycleSet
 .text.gpt_clock_frequency_get
                0x00000000000047fc       0x34 ./ra/fsp/src/r_gpt/r_gpt.o
 .text.R_GPT_InfoGet
                0x0000000000004830       0x1a ./ra/fsp/src/r_gpt/r_gpt.o
                0x0000000000004830                R_GPT_InfoGet
 .text.gpt_gtior_calculate
                0x000000000000484a       0x2a ./ra/fsp/src/r_gpt/r_gpt.o
 .text.r_gpt_init_compare_match_channel
                0x0000000000004874       0x26 ./ra/fsp/src/r_gpt/r_gpt.o
 .text.r_gpt_enable_irq
                0x000000000000489a        0xe ./ra/fsp/src/r_gpt/r_gpt.o
 .text.gpt_hardware_initialize
                0x00000000000048a8      0x1ac ./ra/fsp/src/r_gpt/r_gpt.o
 .text.R_GPT_Open
                0x0000000000004a54       0x28 ./ra/fsp/src/r_gpt/r_gpt.o
                0x0000000000004a54                R_GPT_Open
 .text.R_FLASH_LP_StatusGet
                0x0000000000004a7c       0x22 ./ra/fsp/src/r_flash_lp/r_flash_lp.o
                0x0000000000004a7c                R_FLASH_LP_StatusGet
 .text.R_FLASH_LP_AccessWindowSet
                0x0000000000004a9e        0x4 ./ra/fsp/src/r_flash_lp/r_flash_lp.o
                0x0000000000004a9e                R_FLASH_LP_AccessWindowSet
 .text.R_FLASH_LP_AccessWindowClear
                0x0000000000004aa2        0x4 ./ra/fsp/src/r_flash_lp/r_flash_lp.o
                0x0000000000004aa2                R_FLASH_LP_AccessWindowClear
 .text.R_FLASH_LP_IdCodeSet
                0x0000000000004aa6        0x4 ./ra/fsp/src/r_flash_lp/r_flash_lp.o
                0x0000000000004aa6                R_FLASH_LP_IdCodeSet
 .text.R_FLASH_LP_StartUpAreaSelect
                0x0000000000004aaa        0x4 ./ra/fsp/src/r_flash_lp/r_flash_lp.o
                0x0000000000004aaa                R_FLASH_LP_StartUpAreaSelect
 .text.R_FLASH_LP_BankSwap
                0x0000000000004aae        0x4 ./ra/fsp/src/r_flash_lp/r_flash_lp.o
                0x0000000000004aae                R_FLASH_LP_BankSwap
 .text.R_FLASH_LP_InfoGet
                0x0000000000004ab2       0x1e ./ra/fsp/src/r_flash_lp/r_flash_lp.o
                0x0000000000004ab2                R_FLASH_LP_InfoGet
 .text.R_FLASH_LP_CallbackSet
                0x0000000000004ad0        0x4 ./ra/fsp/src/r_flash_lp/r_flash_lp.o
                0x0000000000004ad0                R_FLASH_LP_CallbackSet
 .text.r_flash_lp_init
                0x0000000000004ad4       0xac ./ra/fsp/src/r_flash_lp/r_flash_lp.o
 .text.r_flash_lp_df_write_operation
                0x0000000000004b80       0x30 ./ra/fsp/src/r_flash_lp/r_flash_lp.o
 .text.r_flash_lp_process_command
                0x0000000000004bb0       0x3a ./ra/fsp/src/r_flash_lp/r_flash_lp.o
 .text.r_flash_lp_delay_us
                0x0000000000004bea       0x10 ./ra/fsp/src/r_flash_lp/r_flash_lp.o
 .text.r_flash_lp_setup
                0x0000000000004bfa       0xa4 ./ra/fsp/src/r_flash_lp/r_flash_lp.o
 .text.r_flash_lp_write_fpmcr
                0x0000000000004c9e       0x2a ./ra/fsp/src/r_flash_lp/r_flash_lp.o
 .text.r_flash_lp_pe_mode_exit
                0x0000000000004cc8       0x58 ./ra/fsp/src/r_flash_lp/r_flash_lp.o
 .text.r_flash_lp_command_finish
                0x0000000000004d20       0x6a ./ra/fsp/src/r_flash_lp/r_flash_lp.o
 *fill*         0x0000000000004d8a        0x2 ff
 .text.r_flash_lp_df_enter_pe_mode
                0x0000000000004d8c       0x40 ./ra/fsp/src/r_flash_lp/r_flash_lp.o
 .text.r_flash_lp_set_fisr
                0x0000000000004dcc       0x54 ./ra/fsp/src/r_flash_lp/r_flash_lp.o
 .text.R_FLASH_LP_Open
                0x0000000000004e20       0x40 ./ra/fsp/src/r_flash_lp/r_flash_lp.o
                0x0000000000004e20                R_FLASH_LP_Open
 .text.R_FLASH_LP_UpdateFlashClockFreq
                0x0000000000004e60       0x14 ./ra/fsp/src/r_flash_lp/r_flash_lp.o
                0x0000000000004e60                R_FLASH_LP_UpdateFlashClockFreq
 .text.r_flash_lp_reset
                0x0000000000004e74       0x3e ./ra/fsp/src/r_flash_lp/r_flash_lp.o
 .text.r_flash_lp_wait_for_ready
                0x0000000000004eb2       0x40 ./ra/fsp/src/r_flash_lp/r_flash_lp.o
 .text.r_flash_lp_df_write_monitor
                0x0000000000004ef2       0x30 ./ra/fsp/src/r_flash_lp/r_flash_lp.o
 .text.R_FLASH_LP_Reset
                0x0000000000004f22        0xa ./ra/fsp/src/r_flash_lp/r_flash_lp.o
                0x0000000000004f22                R_FLASH_LP_Reset
 .text.r_flash_lp_df_write
                0x0000000000004f2c       0x56 ./ra/fsp/src/r_flash_lp/r_flash_lp.o
 .text.R_FLASH_LP_Write
                0x0000000000004f82        0xe ./ra/fsp/src/r_flash_lp/r_flash_lp.o
                0x0000000000004f82                R_FLASH_LP_Write
 .text.r_flash_lp_df_erase
                0x0000000000004f90       0x4c ./ra/fsp/src/r_flash_lp/r_flash_lp.o
 .text.R_FLASH_LP_Erase
                0x0000000000004fdc       0x22 ./ra/fsp/src/r_flash_lp/r_flash_lp.o
                0x0000000000004fdc                R_FLASH_LP_Erase
 .text.r_flash_lp_df_blankcheck
                0x0000000000004ffe       0x68 ./ra/fsp/src/r_flash_lp/r_flash_lp.o
 .text.R_FLASH_LP_BlankCheck
                0x0000000000005066       0x30 ./ra/fsp/src/r_flash_lp/r_flash_lp.o
                0x0000000000005066                R_FLASH_LP_BlankCheck
 .text.R_FLASH_LP_Close
                0x0000000000005096       0x1c ./ra/fsp/src/r_flash_lp/r_flash_lp.o
                0x0000000000005096                R_FLASH_LP_Close
 .text.fcu_frdyi_isr
                0x00000000000050b2       0xe6 ./ra/fsp/src/r_flash_lp/r_flash_lp.o
                0x00000000000050b2                fcu_frdyi_isr
 .text.R_ADC_ScanStart
                0x0000000000005198        0xa ./ra/fsp/src/r_adc/r_adc.o
                0x0000000000005198                R_ADC_ScanStart
 .text.R_ADC_Read
                0x00000000000051a2        0xe ./ra/fsp/src/r_adc/r_adc.o
                0x00000000000051a2                R_ADC_Read
 .text.r_adc_sensor_sample_state_calculation
                0x00000000000051b0       0x48 ./ra/fsp/src/r_adc/r_adc.o
 .text.r_adc_sensor_cfg
                0x00000000000051f8       0x6c ./ra/fsp/src/r_adc/r_adc.o
 .text.r_adc_call_callback
                0x0000000000005264       0x3a ./ra/fsp/src/r_adc/r_adc.o
 .text.r_adc_open_sub
                0x000000000000529e       0xfc ./ra/fsp/src/r_adc/r_adc.o
 .text.r_adc_irq_enable
                0x000000000000539a        0xe ./ra/fsp/src/r_adc/r_adc.o
 .text.R_ADC_Open
                0x00000000000053a8       0x6a ./ra/fsp/src/r_adc/r_adc.o
                0x00000000000053a8                R_ADC_Open
 *fill*         0x0000000000005412        0x2 ff
 .text.r_adc_scan_cfg
                0x0000000000005414      0x15c ./ra/fsp/src/r_adc/r_adc.o
 .text.R_ADC_ScanCfg
                0x0000000000005570       0x12 ./ra/fsp/src/r_adc/r_adc.o
                0x0000000000005570                R_ADC_ScanCfg
 .text.r_adc_scan_end_common_isr
                0x0000000000005582       0x52 ./ra/fsp/src/r_adc/r_adc.o
 .text.adc_scan_end_isr
                0x00000000000055d4        0xa ./ra/fsp/src/r_adc/r_adc.o
                0x00000000000055d4                adc_scan_end_isr
 .text.bsp_prv_operating_mode_opccr_set
                0x00000000000055de       0x5c ./ra/fsp/src/bsp/mcu/all/bsp_clocks.o
 .text.bsp_prv_sosc_init
                0x000000000000563a       0x12 ./ra/fsp/src/bsp/mcu/all/bsp_clocks.o
 .text.SystemCoreClockUpdate
                0x000000000000564c       0x2e ./ra/fsp/src/bsp/mcu/all/bsp_clocks.o
                0x000000000000564c                SystemCoreClockUpdate
 .text.bsp_clock_freq_var_init
                0x000000000000567a       0x38 ./ra/fsp/src/bsp/mcu/all/bsp_clocks.o
 .text.bsp_prv_clock_set_hard_reset
                0x00000000000056b2       0x20 ./ra/fsp/src/bsp/mcu/all/bsp_clocks.o
 *fill*         0x00000000000056d2        0x2 ff
 .text.bsp_clock_init
                0x00000000000056d4       0x80 ./ra/fsp/src/bsp/mcu/all/bsp_clocks.o
                0x00000000000056d4                bsp_clock_init
 .text.R_BSP_Init_RTC
                0x0000000000005754       0x10 ./ra/fsp/src/bsp/mcu/all/bsp_clocks.o
                0x0000000000005754                R_BSP_Init_RTC
 .text.bsp_init_internal
                0x0000000000005764        0x2 ./ra/fsp/src/bsp/mcu/all/bsp_common.o
                0x0000000000005764                bsp_init
                0x0000000000005764                bsp_init_internal
 .text.__assert_func
                0x0000000000005766        0x4 ./ra/fsp/src/bsp/mcu/all/bsp_common.o
                0x0000000000005766                __assert_func
 .text.bsp_prv_software_delay_loop
                0x000000000000576a        0x8 ./ra/fsp/src/bsp/mcu/all/bsp_delay.o
                0x000000000000576a                bsp_prv_software_delay_loop
 .text.R_BSP_SoftwareDelay
                0x0000000000005772       0x56 ./ra/fsp/src/bsp/mcu/all/bsp_delay.o
                0x0000000000005772                R_BSP_SoftwareDelay
 .text.bsp_group_irq_call
                0x00000000000057c8       0x14 ./ra/fsp/src/bsp/mcu/all/bsp_group_irq.o
 .text.NMI_Handler
                0x00000000000057dc       0x44 ./ra/fsp/src/bsp/mcu/all/bsp_group_irq.o
                0x00000000000057dc                NMI_Handler
 .text.R_BSP_IrqStatusClear
                0x0000000000005820       0x1c ./ra/fsp/src/bsp/mcu/all/bsp_irq.o
                0x0000000000005820                R_BSP_IrqStatusClear
 .text.R_BSP_IrqClearPending
                0x000000000000583c       0x26 ./ra/fsp/src/bsp/mcu/all/bsp_irq.o
                0x000000000000583c                R_BSP_IrqClearPending
 .text.R_BSP_IrqCfg
                0x0000000000005862       0x44 ./ra/fsp/src/bsp/mcu/all/bsp_irq.o
                0x0000000000005862                R_BSP_IrqCfg
 .text.R_BSP_IrqEnableNoClear
                0x00000000000058a6       0x18 ./ra/fsp/src/bsp/mcu/all/bsp_irq.o
                0x00000000000058a6                R_BSP_IrqEnableNoClear
 .text.R_BSP_IrqEnable
                0x00000000000058be       0x10 ./ra/fsp/src/bsp/mcu/all/bsp_irq.o
                0x00000000000058be                R_BSP_IrqEnable
 .text.R_BSP_IrqDisable
                0x00000000000058ce       0x22 ./ra/fsp/src/bsp/mcu/all/bsp_irq.o
                0x00000000000058ce                R_BSP_IrqDisable
 .text.R_BSP_IrqCfgEnable
                0x00000000000058f0       0x10 ./ra/fsp/src/bsp/mcu/all/bsp_irq.o
                0x00000000000058f0                R_BSP_IrqCfgEnable
 .text.bsp_irq_cfg
                0x0000000000005900       0x2c ./ra/fsp/src/bsp/mcu/all/bsp_irq.o
                0x0000000000005900                bsp_irq_cfg
 .text.R_BSP_RegisterProtectEnable
                0x000000000000592c       0x70 ./ra/fsp/src/bsp/mcu/all/bsp_register_protection.o
                0x000000000000592c                R_BSP_RegisterProtectEnable
 .text.R_BSP_RegisterProtectDisable
                0x000000000000599c       0x5c ./ra/fsp/src/bsp/mcu/all/bsp_register_protection.o
                0x000000000000599c                R_BSP_RegisterProtectDisable
 .text._sbrk    0x00000000000059f8       0x5c ./ra/fsp/src/bsp/mcu/all/bsp_sbrk.o
                0x00000000000059f8                _sbrk
 .text.Default_Handler
                0x0000000000005a54        0x4 ./ra/fsp/src/bsp/cmsis/Device/RENESAS/Source/startup.o
                0x0000000000005a54                DebugMon_Handler
                0x0000000000005a54                HardFault_Handler
                0x0000000000005a54                PendSV_Handler
                0x0000000000005a54                UsageFault_Handler
                0x0000000000005a54                SecureFault_Handler
                0x0000000000005a54                Default_Handler
                0x0000000000005a54                MemManage_Handler
                0x0000000000005a54                SVC_Handler
                0x0000000000005a54                BusFault_Handler
 .text.Reset_Handler
                0x0000000000005a58        0xc ./ra/fsp/src/bsp/cmsis/Device/RENESAS/Source/startup.o
                0x0000000000005a58                Reset_Handler
 .text.bsp_reset_trng_circuit
                0x0000000000005a64       0x7c ./ra/fsp/src/bsp/cmsis/Device/RENESAS/Source/system.o
 .text.SystemInit
                0x0000000000005ae0       0xdc ./ra/fsp/src/bsp/cmsis/Device/RENESAS/Source/system.o
                0x0000000000005ae0                SystemInit
 .text.add_callback
                0x0000000000005bbc       0x76 ./libs/c-watcher/src/watcher.o
 .text.add_arg  0x0000000000005c32       0x76 ./libs/c-watcher/src/watcher.o
 .text.debouncer_callback
                0x0000000000005ca8       0x12 ./libs/c-watcher/src/watcher.o
 .text.is_debounced
                0x0000000000005cba       0x20 ./libs/c-watcher/src/watcher.o
 .text.trigger_debouncer_entry
                0x0000000000005cda       0x3c ./libs/c-watcher/src/watcher.o
 .text.add_entry_static
                0x0000000000005d16      0x258 ./libs/c-watcher/src/watcher.o
 .text.watcher_init
                0x0000000000005f6e       0x36 ./libs/c-watcher/src/watcher.o
                0x0000000000005f6e                watcher_init
 .text.watcher_add_entry
                0x0000000000005fa4       0x3c ./libs/c-watcher/src/watcher.o
                0x0000000000005fa4                watcher_add_entry
 .text.watcher_trigger_entry
                0x0000000000005fe0       0x92 ./libs/c-watcher/src/watcher.o
                0x0000000000005fe0                watcher_trigger_entry
 .text.watcher_watch
                0x0000000000006072       0xe8 ./libs/c-watcher/src/watcher.o
                0x0000000000006072                watcher_watch
 .text.stopwatch_init
                0x000000000000615a        0xe ./libs/c-stopwatch/src/stopwatch.o
                0x000000000000615a                stopwatch_init
 .text.stopwatch_resume
                0x0000000000006168        0xc ./libs/c-stopwatch/src/stopwatch.o
                0x0000000000006168                stopwatch_resume
 .text.stopwatch_pause
                0x0000000000006174       0x1c ./libs/c-stopwatch/src/stopwatch.o
                0x0000000000006174                stopwatch_pause
 .text.stopwatch_reset
                0x0000000000006190        0x8 ./libs/c-stopwatch/src/stopwatch.o
                0x0000000000006190                stopwatch_reset
 .text.stopwatch_set
                0x0000000000006198        0x4 ./libs/c-stopwatch/src/stopwatch.o
                0x0000000000006198                stopwatch_set
 .text.stopwatch_is_paused
                0x000000000000619c        0x4 ./libs/c-stopwatch/src/stopwatch.o
                0x000000000000619c                stopwatch_is_paused
 .text.stopwatch_get_elapsed
                0x00000000000061a0       0x18 ./libs/c-stopwatch/src/stopwatch.o
                0x00000000000061a0                stopwatch_get_elapsed
 .text.stopwatch_get_remaining
                0x00000000000061b8       0x16 ./libs/c-stopwatch/src/stopwatch.o
                0x00000000000061b8                stopwatch_get_remaining
 .text.stopwatch_get_total_time
                0x00000000000061ce        0x4 ./libs/c-stopwatch/src/stopwatch.o
                0x00000000000061ce                stopwatch_get_total_time
 .text.stopwatch_is_done
                0x00000000000061d2       0x30 ./libs/c-stopwatch/src/stopwatch.o
                0x00000000000061d2                stopwatch_is_done
 .text.stopwatch_timer_init
                0x0000000000006202       0x28 ./libs/c-stopwatch/src/stopwatch_timer.o
                0x0000000000006202                stopwatch_timer_init
 .text.stopwatch_timer_set_period
                0x000000000000622a        0x8 ./libs/c-stopwatch/src/stopwatch_timer.o
                0x000000000000622a                stopwatch_timer_set_period
 .text.stopwatch_timer_resume
                0x0000000000006232        0x8 ./libs/c-stopwatch/src/stopwatch_timer.o
                0x0000000000006232                stopwatch_timer_resume
 .text.stopwatch_timer_reset
                0x000000000000623a       0x10 ./libs/c-stopwatch/src/stopwatch_timer.o
                0x000000000000623a                stopwatch_timer_reset
 .text.stopwatch_timer_pause
                0x000000000000624a        0x8 ./libs/c-stopwatch/src/stopwatch_timer.o
                0x000000000000624a                stopwatch_timer_pause
 .text.stopwatch_timer_manage
                0x0000000000006252       0x52 ./libs/c-stopwatch/src/stopwatch_timer.o
                0x0000000000006252                stopwatch_timer_manage
 .text.stopwatch_timer_set_arg
                0x00000000000062a4        0x4 ./libs/c-stopwatch/src/stopwatch_timer.o
                0x00000000000062a4                stopwatch_timer_set_arg
 .text.debounce_filter_init
                0x00000000000062a8       0x1a ./libs/c-debounce/src/debounce.o
                0x00000000000062a8                debounce_filter_init
 .text.debounce_filter_single
                0x00000000000062c2       0x68 ./libs/c-debounce/src/debounce.o
                0x00000000000062c2                debounce_filter_single
 .text.debounce_filter
                0x000000000000632a       0x34 ./libs/c-debounce/src/debounce.o
                0x000000000000632a                debounce_filter
 .text.pulse_filter_init
                0x000000000000635e       0x1e ./libs/c-debounce/src/pulsecounter.o
                0x000000000000635e                pulse_filter_init
 .text.pulse_filter
                0x000000000000637c       0xb6 ./libs/c-debounce/src/pulsecounter.o
                0x000000000000637c                pulse_filter
 *fill*         0x0000000000006432        0x2 ff
 .text          0x0000000000006434       0x3c /home/maldus/Local/renesas/e2_studio/toolchains/gcc_arm/10_3_2021_10/gcc-arm-none-eabi-10.3-2021.10/bin/../lib/gcc/arm-none-eabi/10.3.1/thumb/v8-m.base/nofp/libgcc.a(_clzsi2.o)
                0x0000000000006434                __clzsi2
 .text          0x0000000000006470       0x40 /home/maldus/Local/renesas/e2_studio/toolchains/gcc_arm/10_3_2021_10/gcc-arm-none-eabi-10.3-2021.10/bin/../lib/gcc/arm-none-eabi/10.3.1/thumb/v8-m.base/nofp/libgcc.a(_aeabi_uldivmod.o)
                0x0000000000006470                __aeabi_uldivmod
 .text          0x00000000000064b0       0x5c /home/maldus/Local/renesas/e2_studio/toolchains/gcc_arm/10_3_2021_10/gcc-arm-none-eabi-10.3-2021.10/bin/../lib/gcc/arm-none-eabi/10.3.1/thumb/v8-m.base/nofp/libgcc.a(_muldi3.o)
                0x00000000000064b0                __aeabi_lmul
                0x00000000000064b0                __muldi3
 .text          0x000000000000650c      0x3b4 /home/maldus/Local/renesas/e2_studio/toolchains/gcc_arm/10_3_2021_10/gcc-arm-none-eabi-10.3-2021.10/bin/../lib/gcc/arm-none-eabi/10.3.1/thumb/v8-m.base/nofp/libgcc.a(_udivmoddi4.o)
                0x000000000000650c                __udivmoddi4
 .text          0x00000000000068c0        0x4 /home/maldus/Local/renesas/e2_studio/toolchains/gcc_arm/10_3_2021_10/gcc-arm-none-eabi-10.3-2021.10/bin/../lib/gcc/arm-none-eabi/10.3.1/thumb/v8-m.base/nofp/libgcc.a(_dvmd_tls.o)
                0x00000000000068c0                __aeabi_ldiv0
                0x00000000000068c0                __aeabi_idiv0
 .text.__errno  0x00000000000068c4        0xc /home/maldus/Local/renesas/e2_studio/toolchains/gcc_arm/10_3_2021_10/gcc-arm-none-eabi-10.3-2021.10/bin/../lib/gcc/arm-none-eabi/10.3.1/../../../../arm-none-eabi/lib/thumb/v8-m.base/nofp/libg_nano.a(lib_a-errno.o)
                0x00000000000068c4                __errno
 .text.free     0x00000000000068d0       0x14 /home/maldus/Local/renesas/e2_studio/toolchains/gcc_arm/10_3_2021_10/gcc-arm-none-eabi-10.3-2021.10/bin/../lib/gcc/arm-none-eabi/10.3.1/../../../../arm-none-eabi/lib/thumb/v8-m.base/nofp/libg_nano.a(lib_a-malloc.o)
                0x00000000000068d0                free
 .text.memcmp   0x00000000000068e4       0x1c /home/maldus/Local/renesas/e2_studio/toolchains/gcc_arm/10_3_2021_10/gcc-arm-none-eabi-10.3-2021.10/bin/../lib/gcc/arm-none-eabi/10.3.1/../../../../arm-none-eabi/lib/thumb/v8-m.base/nofp/libg_nano.a(lib_a-memcmp.o)
                0x00000000000068e4                memcmp
 .text.memcpy   0x0000000000006900       0x12 /home/maldus/Local/renesas/e2_studio/toolchains/gcc_arm/10_3_2021_10/gcc-arm-none-eabi-10.3-2021.10/bin/../lib/gcc/arm-none-eabi/10.3.1/../../../../arm-none-eabi/lib/thumb/v8-m.base/nofp/libg_nano.a(lib_a-memcpy-stub.o)
                0x0000000000006900                memcpy
 .text.memset   0x0000000000006912       0x10 /home/maldus/Local/renesas/e2_studio/toolchains/gcc_arm/10_3_2021_10/gcc-arm-none-eabi-10.3-2021.10/bin/../lib/gcc/arm-none-eabi/10.3.1/../../../../arm-none-eabi/lib/thumb/v8-m.base/nofp/libg_nano.a(lib_a-memset.o)
                0x0000000000006912                memset
 *fill*         0x0000000000006922        0x2 ff
 .text._free_r  0x0000000000006924       0x8c /home/maldus/Local/renesas/e2_studio/toolchains/gcc_arm/10_3_2021_10/gcc-arm-none-eabi-10.3-2021.10/bin/../lib/gcc/arm-none-eabi/10.3.1/../../../../arm-none-eabi/lib/thumb/v8-m.base/nofp/libg_nano.a(lib_a-nano-freer.o)
                0x0000000000006924                _free_r
 .text.sbrk_aligned
                0x00000000000069b0       0x40 /home/maldus/Local/renesas/e2_studio/toolchains/gcc_arm/10_3_2021_10/gcc-arm-none-eabi-10.3-2021.10/bin/../lib/gcc/arm-none-eabi/10.3.1/../../../../arm-none-eabi/lib/thumb/v8-m.base/nofp/libg_nano.a(lib_a-nano-mallocr.o)
 .text._malloc_r
                0x00000000000069f0       0xec /home/maldus/Local/renesas/e2_studio/toolchains/gcc_arm/10_3_2021_10/gcc-arm-none-eabi-10.3-2021.10/bin/../lib/gcc/arm-none-eabi/10.3.1/../../../../arm-none-eabi/lib/thumb/v8-m.base/nofp/libg_nano.a(lib_a-nano-mallocr.o)
                0x00000000000069f0                _malloc_r
 .text.realloc  0x0000000000006adc       0x14 /home/maldus/Local/renesas/e2_studio/toolchains/gcc_arm/10_3_2021_10/gcc-arm-none-eabi-10.3-2021.10/bin/../lib/gcc/arm-none-eabi/10.3.1/../../../../arm-none-eabi/lib/thumb/v8-m.base/nofp/libg_nano.a(lib_a-realloc.o)
                0x0000000000006adc                realloc
 .text._sbrk_r  0x0000000000006af0       0x20 /home/maldus/Local/renesas/e2_studio/toolchains/gcc_arm/10_3_2021_10/gcc-arm-none-eabi-10.3-2021.10/bin/../lib/gcc/arm-none-eabi/10.3.1/../../../../arm-none-eabi/lib/thumb/v8-m.base/nofp/libg_nano.a(lib_a-sbrkr.o)
                0x0000000000006af0                _sbrk_r
 .text.__malloc_lock
                0x0000000000006b10       0x10 /home/maldus/Local/renesas/e2_studio/toolchains/gcc_arm/10_3_2021_10/gcc-arm-none-eabi-10.3-2021.10/bin/../lib/gcc/arm-none-eabi/10.3.1/../../../../arm-none-eabi/lib/thumb/v8-m.base/nofp/libg_nano.a(lib_a-mlock.o)
                0x0000000000006b10                __malloc_lock
 .text.__malloc_unlock
                0x0000000000006b20       0x10 /home/maldus/Local/renesas/e2_studio/toolchains/gcc_arm/10_3_2021_10/gcc-arm-none-eabi-10.3-2021.10/bin/../lib/gcc/arm-none-eabi/10.3.1/../../../../arm-none-eabi/lib/thumb/v8-m.base/nofp/libg_nano.a(lib_a-mlock.o)
                0x0000000000006b20                __malloc_unlock
 .text._realloc_r
                0x0000000000006b30       0x5c /home/maldus/Local/renesas/e2_studio/toolchains/gcc_arm/10_3_2021_10/gcc-arm-none-eabi-10.3-2021.10/bin/../lib/gcc/arm-none-eabi/10.3.1/../../../../arm-none-eabi/lib/thumb/v8-m.base/nofp/libg_nano.a(lib_a-nano-reallocr.o)
                0x0000000000006b30                _realloc_r
 .text.__retarget_lock_acquire_recursive
                0x0000000000006b8c        0x2 /home/maldus/Local/renesas/e2_studio/toolchains/gcc_arm/10_3_2021_10/gcc-arm-none-eabi-10.3-2021.10/bin/../lib/gcc/arm-none-eabi/10.3.1/../../../../arm-none-eabi/lib/thumb/v8-m.base/nofp/libg_nano.a(lib_a-lock.o)
                0x0000000000006b8c                __retarget_lock_acquire_recursive
 .text.__retarget_lock_release_recursive
                0x0000000000006b8e        0x2 /home/maldus/Local/renesas/e2_studio/toolchains/gcc_arm/10_3_2021_10/gcc-arm-none-eabi-10.3-2021.10/bin/../lib/gcc/arm-none-eabi/10.3.1/../../../../arm-none-eabi/lib/thumb/v8-m.base/nofp/libg_nano.a(lib_a-lock.o)
                0x0000000000006b8e                __retarget_lock_release_recursive
 .text._malloc_usable_size_r
                0x0000000000006b90       0x10 /home/maldus/Local/renesas/e2_studio/toolchains/gcc_arm/10_3_2021_10/gcc-arm-none-eabi-10.3-2021.10/bin/../lib/gcc/arm-none-eabi/10.3.1/../../../../arm-none-eabi/lib/thumb/v8-m.base/nofp/libg_nano.a(lib_a-nano-msizer.o)
                0x0000000000006b90                _malloc_usable_size_r
 *(.version)
 .version       0x0000000000006ba0       0x50 ./ra/fsp/src/bsp/mcu/all/bsp_common.o
 *(.init)
 .init          0x0000000000006bf0        0x4 /home/maldus/Local/renesas/e2_studio/toolchains/gcc_arm/10_3_2021_10/gcc-arm-none-eabi-10.3-2021.10/bin/../lib/gcc/arm-none-eabi/10.3.1/thumb/v8-m.base/nofp/crti.o
                0x0000000000006bf0                _init
 .init          0x0000000000006bf4        0x8 /home/maldus/Local/renesas/e2_studio/toolchains/gcc_arm/10_3_2021_10/gcc-arm-none-eabi-10.3-2021.10/bin/../lib/gcc/arm-none-eabi/10.3.1/thumb/v8-m.base/nofp/crtn.o
 *(.fini)
 .fini          0x0000000000006bfc        0x4 /home/maldus/Local/renesas/e2_studio/toolchains/gcc_arm/10_3_2021_10/gcc-arm-none-eabi-10.3-2021.10/bin/../lib/gcc/arm-none-eabi/10.3.1/thumb/v8-m.base/nofp/crti.o
                0x0000000000006bfc                _fini
 .fini          0x0000000000006c00        0x8 /home/maldus/Local/renesas/e2_studio/toolchains/gcc_arm/10_3_2021_10/gcc-arm-none-eabi-10.3-2021.10/bin/../lib/gcc/arm-none-eabi/10.3.1/thumb/v8-m.base/nofp/crtn.o
 *crtbegin.o(.ctors)
 *crtbegin?.o(.ctors)
 *(EXCLUDE_FILE(*crtend.o *crtend?.o) .ctors)
 *(SORT_BY_NAME(.ctors.*))
 *(.ctors)
 *crtbegin.o(.dtors)
 *crtbegin?.o(.dtors)
 *(EXCLUDE_FILE(*crtend.o *crtend?.o) .dtors)
 *(SORT_BY_NAME(.dtors.*))
 *(.dtors)
 *(.rodata*)
 .rodata.crc16_ccitt_table
                0x0000000000006c08      0x200 ./src/services/crc16-ccitt.o
 .rodata.running_event_manager
                0x0000000000006e08       0x2c ./src/model/cycle.o
 .rodata.standby_event_manager
                0x0000000000006e34       0x2c ./src/model/cycle.o
 .rodata.wait_start_event_manager
                0x0000000000006e60       0x2c ./src/model/cycle.o
 .rodata.managers
                0x0000000000006e8c       0x3c ./src/model/cycle.o
 .rodata.managers
                0x0000000000006ec8       0x24 ./src/model/heating.o
 .rodata.get_pwm_drum_percentage.str1.4
                0x0000000000006eec       0x25 ./src/model/model.o
 *fill*         0x0000000000006f11        0x3 ff
 .rodata.model_pwoff_deserialize.str1.4
                0x0000000000006f14       0x1b ./src/model/model.o
 *fill*         0x0000000000006f2f        0x1 ff
 .rodata.__func__.0
                0x0000000000006f30       0x11 ./src/model/model.o
 *fill*         0x0000000000006f41        0x3 ff
 .rodata.__func__.1
                0x0000000000006f44       0x16 ./src/model/model.o
 *fill*         0x0000000000006f5a        0x2 ff
 .rodata.__func__.10
                0x0000000000006f5c       0x13 ./src/model/model.o
 *fill*         0x0000000000006f6f        0x1 ff
 .rodata.__func__.13
                0x0000000000006f70       0x1e ./src/model/model.o
 *fill*         0x0000000000006f8e        0x2 ff
 .rodata.__func__.14
                0x0000000000006f90       0x1a ./src/model/model.o
 *fill*         0x0000000000006faa        0x2 ff
 .rodata.__func__.15
                0x0000000000006fac       0x1e ./src/model/model.o
 *fill*         0x0000000000006fca        0x2 ff
 .rodata.__func__.16
                0x0000000000006fcc       0x1b ./src/model/model.o
 *fill*         0x0000000000006fe7        0x1 ff
 .rodata.__func__.17
                0x0000000000006fe8       0x17 ./src/model/model.o
 *fill*         0x0000000000006fff        0x1 ff
 .rodata.__func__.19
                0x0000000000007000       0x1e ./src/model/model.o
 *fill*         0x000000000000701e        0x2 ff
 .rodata.__func__.2
                0x0000000000007020       0x13 ./src/model/model.o
 *fill*         0x0000000000007033        0x1 ff
 .rodata.__func__.20
                0x0000000000007034       0x13 ./src/model/model.o
 *fill*         0x0000000000007047        0x1 ff
 .rodata.__func__.21
                0x0000000000007048       0x1c ./src/model/model.o
 .rodata.__func__.22
                0x0000000000007064       0x1a ./src/model/model.o
 *fill*         0x000000000000707e        0x2 ff
 .rodata.__func__.23
                0x0000000000007080       0x12 ./src/model/model.o
 *fill*         0x0000000000007092        0x2 ff
 .rodata.__func__.24
                0x0000000000007094       0x15 ./src/model/model.o
 *fill*         0x00000000000070a9        0x3 ff
 .rodata.__func__.26
                0x00000000000070ac       0x16 ./src/model/model.o
 *fill*         0x00000000000070c2        0x2 ff
 .rodata.__func__.3
                0x00000000000070c4       0x16 ./src/model/model.o
 *fill*         0x00000000000070da        0x2 ff
 .rodata.__func__.30
                0x00000000000070dc       0x12 ./src/model/model.o
 *fill*         0x00000000000070ee        0x2 ff
 .rodata.__func__.31
                0x00000000000070f0       0x18 ./src/model/model.o
 .rodata.__func__.32
                0x0000000000007108       0x16 ./src/model/model.o
 *fill*         0x000000000000711e        0x2 ff
 .rodata.__func__.33
                0x0000000000007120       0x15 ./src/model/model.o
 *fill*         0x0000000000007135        0x3 ff
 .rodata.__func__.34
                0x0000000000007138       0x1d ./src/model/model.o
 *fill*         0x0000000000007155        0x3 ff
 .rodata.__func__.35
                0x0000000000007158       0x18 ./src/model/model.o
 .rodata.__func__.36
                0x0000000000007170       0x17 ./src/model/model.o
 *fill*         0x0000000000007187        0x1 ff
 .rodata.__func__.37
                0x0000000000007188       0x1e ./src/model/model.o
 *fill*         0x00000000000071a6        0x2 ff
 .rodata.__func__.38
                0x00000000000071a8       0x14 ./src/model/model.o
 .rodata.__func__.39
                0x00000000000071bc       0x12 ./src/model/model.o
 *fill*         0x00000000000071ce        0x2 ff
 .rodata.__func__.40
                0x00000000000071d0       0x16 ./src/model/model.o
 *fill*         0x00000000000071e6        0x2 ff
 .rodata.__func__.41
                0x00000000000071e8       0x20 ./src/model/model.o
 .rodata.__func__.42
                0x0000000000007208       0x18 ./src/model/model.o
 .rodata.__func__.43
                0x0000000000007220       0x17 ./src/model/model.o
 *fill*         0x0000000000007237        0x1 ff
 .rodata.__func__.44
                0x0000000000007238       0x1d ./src/model/model.o
 *fill*         0x0000000000007255        0x3 ff
 .rodata.__func__.45
                0x0000000000007258       0x20 ./src/model/model.o
 .rodata.__func__.46
                0x0000000000007278       0x1f ./src/model/model.o
 *fill*         0x0000000000007297        0x1 ff
 .rodata.__func__.47
                0x0000000000007298       0x11 ./src/model/model.o
 *fill*         0x00000000000072a9        0x3 ff
 .rodata.__func__.48
                0x00000000000072ac       0x13 ./src/model/model.o
 *fill*         0x00000000000072bf        0x1 ff
 .rodata.__func__.49
                0x00000000000072c0        0xd ./src/model/model.o
 *fill*         0x00000000000072cd        0x3 ff
 .rodata.__func__.50
                0x00000000000072d0        0xb ./src/model/model.o
 *fill*         0x00000000000072db        0x1 ff
 .rodata.__func__.7
                0x00000000000072dc       0x1e ./src/model/model.o
 *fill*         0x00000000000072fa        0x2 ff
 .rodata.__func__.8
                0x00000000000072fc       0x10 ./src/model/model.o
 .rodata.__func__.9
                0x000000000000730c       0x14 ./src/model/model.o
 .rodata.bsp_adc_init.str1.4
                0x0000000000007320       0x25 ./src/bsp/adc.o
 *fill*         0x0000000000007345        0x3 ff
 .rodata        0x0000000000007348       0x10 ./src/bsp/adc.o
 .rodata.__func__.1
                0x0000000000007358        0xd ./src/bsp/adc.o
 *fill*         0x0000000000007365        0x3 ff
 .rodata        0x0000000000007368        0xc ./src/bsp/coin_reader.o
 .rodata        0x0000000000007374       0x10 ./src/bsp/digin.o
 .rodata.rm_vee_example.str1.4
                0x0000000000007384       0x2b ./src/bsp/power_off.o
 *fill*         0x00000000000073af        0x1 ff
 .rodata.__func__.0
                0x00000000000073b0       0x13 ./src/bsp/power_off.o
 *fill*         0x00000000000073c3        0x1 ff
 .rodata.__func__.1
                0x00000000000073c4       0x13 ./src/bsp/power_off.o
 *fill*         0x00000000000073d7        0x1 ff
 .rodata.bsp_pwm_init.str1.4
                0x00000000000073d8       0x11 ./src/bsp/pwm.o
                                         0x25 (size before relaxing)
 *fill*         0x00000000000073e9        0x3 ff
 .rodata.__func__.0
                0x00000000000073ec        0xf ./src/bsp/pwm.o
 *fill*         0x00000000000073fb        0x1 ff
 .rodata.__func__.1
                0x00000000000073fc        0xd ./src/bsp/pwm.o
 *fill*         0x0000000000007409        0x3 ff
 .rodata        0x000000000000740c        0xe ./src/bsp/relay.o
 *fill*         0x000000000000741a        0x2 ff
 .rodata.CRC_TABLE
                0x000000000000741c      0x100 ./src/bsp/temperature_humidity_probe.o
 .rodata.register_callback
                0x000000000000751c      0x164 ./src/adapters/modbus_server.o
 .rodata.modbus_server_init.str1.4
                0x0000000000007680       0x50 ./src/adapters/modbus_server.o
 .rodata.__func__.1
                0x00000000000076d0       0x13 ./src/adapters/modbus_server.o
 *fill*         0x00000000000076e3        0x1 ff
 .rodata.g_external_irq0_cfg
                0x00000000000076e4       0x14 ./ra_gen/common_data.o
                0x00000000000076e4                g_external_irq0_cfg
 .rodata.g_ioport
                0x00000000000076f8        0xc ./ra_gen/common_data.o
                0x00000000000076f8                g_ioport
 .rodata.g_adc0_cfg
                0x0000000000007704       0x18 ./ra_gen/hal_data.o
                0x0000000000007704                g_adc0_cfg
 .rodata.g_adc0_cfg_extend
                0x000000000000771c        0xb ./ra_gen/hal_data.o
                0x000000000000771c                g_adc0_cfg_extend
 *fill*         0x0000000000007727        0x1 ff
 .rodata.g_adc0_channel_cfg
                0x0000000000007728       0x14 ./ra_gen/hal_data.o
                0x0000000000007728                g_adc0_channel_cfg
 .rodata.g_flash0
                0x000000000000773c        0xc ./ra_gen/hal_data.o
                0x000000000000773c                g_flash0
 .rodata.g_flash0_cfg
                0x0000000000007748       0x14 ./ra_gen/hal_data.o
                0x0000000000007748                g_flash0_cfg
 .rodata.g_timer_pwm_cfg
                0x000000000000775c       0x20 ./ra_gen/hal_data.o
                0x000000000000775c                g_timer_pwm_cfg
 .rodata.g_timer_pwm_extend
                0x000000000000777c       0x3c ./ra_gen/hal_data.o
                0x000000000000777c                g_timer_pwm_extend
 .rodata.g_uart0
                0x00000000000077b8        0xc ./ra_gen/hal_data.o
                0x00000000000077b8                g_uart0
 .rodata.g_uart0_cfg
                0x00000000000077c4       0x20 ./ra_gen/hal_data.o
                0x00000000000077c4                g_uart0_cfg
 .rodata.g_uart0_cfg_extend
                0x00000000000077e4       0x14 ./ra_gen/hal_data.o
                0x00000000000077e4                g_uart0_cfg_extend
 .rodata.g_vee0_cfg
                0x00000000000077f8       0x24 ./ra_gen/hal_data.o
                0x00000000000077f8                g_vee0_cfg
 .rodata.g_vee0_cfg_ext
                0x000000000000781c        0x4 ./ra_gen/hal_data.o
                0x000000000000781c                g_vee0_cfg_ext
 .rodata.g_bsp_pin_cfg
                0x0000000000007820        0xc ./ra_gen/pin_data.o
                0x0000000000007820                g_bsp_pin_cfg
 .rodata.g_bsp_pin_cfg_data
                0x000000000000782c      0x148 ./ra_gen/pin_data.o
                0x000000000000782c                g_bsp_pin_cfg_data
 .rodata.g_interrupt_event_link_select
                0x0000000000007974       0x20 ./ra_gen/vector_data.o
                0x0000000000007974                g_interrupt_event_link_select
 .rodata.rm_vee_flash_callback
                0x0000000000007994       0x2c ./ra/fsp/src/rm_vee_flash/rm_vee_flash.o
 .rodata.g_uart_on_sci
                0x00000000000079c0       0x24 ./ra/fsp/src/r_sci_uart/r_sci_uart.o
                0x00000000000079c0                g_uart_on_sci
 .rodata.g_ioport_on_ioport
                0x00000000000079e4       0x34 ./ra/fsp/src/r_ioport/r_ioport.o
                0x00000000000079e4                g_ioport_on_ioport
 .rodata.g_code_flash_macro_info
                0x0000000000007a18       0x10 ./ra/fsp/src/r_flash_lp/r_flash_lp.o
                0x0000000000007a18                g_code_flash_macro_info
 .rodata.g_data_flash_macro_info
                0x0000000000007a28       0x10 ./ra/fsp/src/r_flash_lp/r_flash_lp.o
                0x0000000000007a28                g_data_flash_macro_info
 .rodata.g_flash_code_region
                0x0000000000007a38        0x8 ./ra/fsp/src/r_flash_lp/r_flash_lp.o
 .rodata.g_flash_data_region
                0x0000000000007a40        0x8 ./ra/fsp/src/r_flash_lp/r_flash_lp.o
 .rodata.g_flash_on_flash_lp
                0x0000000000007a48       0x3c ./ra/fsp/src/r_flash_lp/r_flash_lp.o
                0x0000000000007a48                g_flash_on_flash_lp
 .rodata.g_prcr_masks
                0x0000000000007a84        0x8 ./ra/fsp/src/bsp/mcu/all/bsp_register_protection.o
                0x0000000000007a8c                __usb_dev_descriptor_start_fs = .
 *(.usb_device_desc_fs*)
                0x0000000000007a8c                __usb_cfg_descriptor_start_fs = .
 *(.usb_config_desc_fs*)
                0x0000000000007a8c                __usb_interface_descriptor_start_fs = .
 *(.usb_interface_desc_fs*)
                0x0000000000007a8c                __usb_descriptor_end_fs = .
                0x0000000000007a8c                __usb_dev_descriptor_start_hs = .
 *(.usb_device_desc_hs*)
                0x0000000000007a8c                __usb_cfg_descriptor_start_hs = .
 *(.usb_config_desc_hs*)
                0x0000000000007a8c                __usb_interface_descriptor_start_hs = .
 *(.usb_interface_desc_hs*)
                0x0000000000007a8c                __usb_descriptor_end_hs = .
 *(.eh_frame*)
 .eh_frame      0x0000000000007a8c        0x0 /home/maldus/Local/renesas/e2_studio/toolchains/gcc_arm/10_3_2021_10/gcc-arm-none-eabi-10.3-2021.10/bin/../lib/gcc/arm-none-eabi/10.3.1/thumb/v8-m.base/nofp/crtbegin.o
 .eh_frame      0x0000000000007a8c        0x4 /home/maldus/Local/renesas/e2_studio/toolchains/gcc_arm/10_3_2021_10/gcc-arm-none-eabi-10.3-2021.10/bin/../lib/gcc/arm-none-eabi/10.3.1/thumb/v8-m.base/nofp/crtend.o
                0x0000000000007a90                __ROM_End = .
                0x00000000000000c0                __Vectors_Size = (__Vectors_End - __Vectors)

.glue_7         0x0000000000007a90        0x0
 .glue_7        0x0000000000007a90        0x0 linker stubs

.glue_7t        0x0000000000007a90        0x0
 .glue_7t       0x0000000000007a90        0x0 linker stubs

.vfp11_veneer   0x0000000000007a90        0x0
 .vfp11_veneer  0x0000000000007a90        0x0 linker stubs

.v4_bx          0x0000000000007a90        0x0
 .v4_bx         0x0000000000007a90        0x0 linker stubs

.iplt           0x0000000000007a90        0x0
 .iplt          0x0000000000007a90        0x0 /home/maldus/Local/renesas/e2_studio/toolchains/gcc_arm/10_3_2021_10/gcc-arm-none-eabi-10.3-2021.10/bin/../lib/gcc/arm-none-eabi/10.3.1/thumb/v8-m.base/nofp/crtbegin.o
                0x0000000000007a90                . = .
                0x0000000000007a90                __itcm_data_pre_location = .

.itcm_data      0x0000000000000000        0x0 load address 0x0000000000007a90
                0x0000000000000000                __tz_ITCM_S = ABSOLUTE (ITCM_START)
                0x0000000000000000                __itcm_data_start = .
 *(.itcm_data*)
                0x0000000000000000                . = ALIGN (0x8)
                0x0000000000000000                __itcm_data_end = .
                0x0000000000000000                __tz_ITCM_N = DEFINED (ITCM_NS_START)?ABSOLUTE (ITCM_NS_START):ALIGN (__itcm_data_end, 0x2000)
                0x0000000000007a90                __itcm_data_init_start = LOADADDR (.itcm_data)
                0x0000000000007a90                __itcm_data_init_end = (LOADADDR (.itcm_data) + SIZEOF (.itcm_data))
                0x0000000000000001                ASSERT (((ORIGIN (ITCM) % 0x8) == 0x0), ITCM memory region origin must be aligned to 8 bytes.)
                0x0000000000000001                ASSERT (((LENGTH (ITCM) % 0x8) == 0x0), ITCM memory region length must be a multiple of 8 bytes.)
                0x0000000000000001                ASSERT (((LOADADDR (.itcm_data) % 0x10) == 0x0), .itcm_data section must be aligned to 16 bytes.)
                0x0000000000000001                ASSERT (((SIZEOF (.itcm_data) % 0x8) == 0x0), .itcm_data section size must be a multiple of 8 bytes.)
                0x0000000000007a90                . = (SIZEOF (.itcm_data) > 0x0)?__itcm_data_init_end:__itcm_data_pre_location
                0x0000000000007a90                __exidx_start = .

/DISCARD/
 *(.ARM.extab* .gnu.linkonce.armextab.*)
 *(.ARM.exidx* .gnu.linkonce.armexidx.*)
                0x0000000000007a90                __exidx_end = .
                0x0000000000007a90                __etext = .
                0x0000000020000000                __tz_RAM_S = ORIGIN (RAM)

.fsp_dtc_vector_table
                0x0000000020000000        0x0
                0x0000000020000000                . = ORIGIN (RAM)
 *(.fsp_dtc_vector_table)

.data           0x0000000020000000       0x90 load address 0x0000000000007a90
                0x0000000020000000                __data_start__ = .
                0x0000000020000000                . = ALIGN (0x4)
                0x0000000020000000                __Code_In_RAM_Start = .
 *(.code_in_ram*)
                0x0000000020000000                __Code_In_RAM_End = .
 *(vtable)
 *(.data.*)
 .data.modbusSlaveDefaultFunctions
                0x0000000020000000       0x20 ./src/adapters/modbus_server.o
                0x0000000020000000                modbusSlaveDefaultFunctions
 .data.g_uart0_baud_setting
                0x0000000020000020        0x4 ./ra_gen/hal_data.o
                0x0000000020000020                g_uart0_baud_setting
 .data._impure_ptr
                0x0000000020000024        0x4 /home/maldus/Local/renesas/e2_studio/toolchains/gcc_arm/10_3_2021_10/gcc-arm-none-eabi-10.3-2021.10/bin/../lib/gcc/arm-none-eabi/10.3.1/../../../../arm-none-eabi/lib/thumb/v8-m.base/nofp/libg_nano.a(lib_a-impure.o)
                0x0000000020000024                _impure_ptr
 .data.impure_data
                0x0000000020000028       0x60 /home/maldus/Local/renesas/e2_studio/toolchains/gcc_arm/10_3_2021_10/gcc-arm-none-eabi-10.3-2021.10/bin/../lib/gcc/arm-none-eabi/10.3.1/../../../../arm-none-eabi/lib/thumb/v8-m.base/nofp/libg_nano.a(lib_a-impure.o)
 *(.data)
                0x0000000020000088                . = ALIGN (0x4)
                0x0000000020000088                PROVIDE (__preinit_array_start = .)
 *(.preinit_array)
                0x0000000020000088                PROVIDE (__preinit_array_end = .)
                0x0000000020000088                . = ALIGN (0x4)
                0x0000000020000088                PROVIDE (__init_array_start = .)
 *(SORT_BY_NAME(.init_array.*))
 *(.init_array)
 .init_array    0x0000000020000088        0x4 /home/maldus/Local/renesas/e2_studio/toolchains/gcc_arm/10_3_2021_10/gcc-arm-none-eabi-10.3-2021.10/bin/../lib/gcc/arm-none-eabi/10.3.1/thumb/v8-m.base/nofp/crtbegin.o
                0x000000002000008c                PROVIDE (__init_array_end = .)
                0x000000002000008c                . = ALIGN (0x4)
                [!provide]                        PROVIDE (__fini_array_start = .)
 *(SORT_BY_NAME(.fini_array.*))
 *(.fini_array)
 .fini_array    0x000000002000008c        0x4 /home/maldus/Local/renesas/e2_studio/toolchains/gcc_arm/10_3_2021_10/gcc-arm-none-eabi-10.3-2021.10/bin/../lib/gcc/arm-none-eabi/10.3.1/thumb/v8-m.base/nofp/crtbegin.o
                [!provide]                        PROVIDE (__fini_array_end = .)
 *(.jcr*)
                0x0000000020000090                . = ALIGN (0x4)
                0x0000000020000090                __data_end__ = .

.igot.plt       0x0000000020000090        0x0 load address 0x0000000000007b20
 .igot.plt      0x0000000020000090        0x0 /home/maldus/Local/renesas/e2_studio/toolchains/gcc_arm/10_3_2021_10/gcc-arm-none-eabi-10.3-2021.10/bin/../lib/gcc/arm-none-eabi/10.3.1/thumb/v8-m.base/nofp/crtbegin.o
                0x0000000020000090                . = .
                0x0000000000007b20                __dtcm_data_pre_location = (LOADADDR (.data) + SIZEOF (.data))

.dtcm_data      0x0000000000000000        0x0 load address 0x0000000000007b20
                0x0000000000000000                __tz_DTCM_S = ABSOLUTE (DTCM_START)
                0x0000000000000000                __dtcm_data_start = .
 *(.dtcm_data*)
                0x0000000000000000                . = ALIGN (0x8)
                0x0000000000000000                __dtcm_data_end = .
                0x0000000000000000                . = __dtcm_data_end

.dtcm_bss       0x0000000000000000        0x0
                0x0000000000000000                __dtcm_bss_start = .
 *(.dtcm_bss*)
                0x0000000000000000                . = ALIGN (0x8)
                0x0000000000000000                __dtcm_bss_end = .
                0x0000000000000000                __tz_DTCM_N = DEFINED (DTCM_NS_START)?ABSOLUTE (DTCM_NS_START):ALIGN (__dtcm_bss_end, 0x2000)
                0x0000000000007b20                __dtcm_data_init_start = LOADADDR (.dtcm_data)
                0x0000000000007b20                __dtcm_data_init_end = (LOADADDR (.dtcm_data) + SIZEOF (.dtcm_data))
                0x0000000000000001                ASSERT (((ORIGIN (DTCM) % 0x8) == 0x0), DTCM memory region origin must be aligned to 8 bytes.)
                0x0000000000000001                ASSERT (((LENGTH (DTCM) % 0x8) == 0x0), DTCM memory region length must be a multiple of 8 bytes.)
                0x0000000000000001                ASSERT ((LOADADDR (.dtcm_bss) == ADDR (.dtcm_bss)), .dtcm_bss has (VMA != LMA) but should be NOLOAD (VMA == LMA).)
                0x0000000000000001                ASSERT (((LOADADDR (.dtcm_data) % 0x10) == 0x0), .dtcm_data section must be aligned to 16 bytes.)
                0x0000000000000001                ASSERT (((SIZEOF (.dtcm_data) % 0x8) == 0x0), .dtcm_data section size must be a multiple of 8 bytes.)
                0x0000000000000001                ASSERT (((LOADADDR (.dtcm_bss) % 0x8) == 0x0), .dtcm_bss section must be aligned to 8 bytes.)
                0x0000000000000001                ASSERT (((SIZEOF (.dtcm_bss) % 0x8) == 0x0), .dtcm_bss section size must be a multiple of 8 bytes.)
                0x0000000000000001                ASSERT ((__dtcm_bss_start == __dtcm_data_end), .dtcm_bss section is not adjacent to .dtcm_data section.)
                0x0000000000007b20                . = (SIZEOF (.dtcm_data) > 0x0)?__dtcm_data_init_end:__dtcm_data_pre_location
                0x0000000000007b20                sgstubs_pre_location = .
                0x0000000000007c00                SGSTUBS_LOC = (DEFINED (PROJECT_SECURE) && DEFINED (FLASH_NSC_START))?ABSOLUTE (FLASH_NSC_START):ALIGN (0x400)

.gnu.sgstubs    0x0000000000007c00        0x0
                0x0000000000007c00                __tz_FLASH_C = DEFINED (FLASH_NSC_START)?ABSOLUTE (FLASH_NSC_START):__RESERVE_NS_RAM?ABSOLUTE ((FLASH_START + FLASH_LENGTH)):ALIGN (0x400)
                0x0000000000007c00                _start_sg = .
 *(.gnu.sgstubs*)
                0x0000000000007c00                . = ALIGN (0x20)
                0x0000000000007c00                _end_sg = .
                0x0000000000008000                __tz_FLASH_N = DEFINED (FLASH_NS_START)?ABSOLUTE (FLASH_NS_START):__RESERVE_NS_RAM?ABSOLUTE ((FLASH_START + FLASH_LENGTH)):(FLASH_LENGTH < 0x8000)?FLASH_LENGTH:ALIGN (0x8000)
                0x0000000000008000                FLASH_NS_IMAGE_START = DEFINED (FLASH_NS_IMAGE_START)?FLASH_NS_IMAGE_START:__tz_FLASH_N
                0x0000000060000000                __tz_QSPI_FLASH_S = ORIGIN (QSPI_FLASH)

.qspi_flash     0x0000000060000000        0x0
                0x0000000060000000                __qspi_flash_start__ = .
 *(.qspi_flash*)
 *(.code_in_qspi*)
                0x0000000060000000                __qspi_flash_end__ = .
                0x0000000000000000                __qspi_flash_code_size__ = (__qspi_flash_end__ - __qspi_flash_start__)
                0x0000000000007b20                __qspi_flash_code_addr__ = sgstubs_pre_location

.qspi_non_retentive
                0x0000000060000000        0x0 load address 0x0000000000007b20
                0x0000000060000000                __qspi_non_retentive_start__ = .
 *(.qspi_non_retentive*)
                0x0000000060000000                __qspi_non_retentive_end__ = .
                0x0000000000000000                __qspi_non_retentive_size__ = (__qspi_non_retentive_end__ - __qspi_non_retentive_start__)
                0x0000000004000000                __qspi_region_max_size__ = 0x4000000
                0x0000000060000000                __qspi_region_start_address__ = __qspi_flash_start__
                0x0000000064000000                __qspi_region_end_address__ = (__qspi_flash_start__ + __qspi_region_max_size__)
                0x0000000060000000                __tz_QSPI_FLASH_N = __qspi_non_retentive_end__

.OSPI_DEVICE_0_NO_LOAD
                0x0000000080020000        0x0
                0x0000000080020000                . = ALIGN (0x4)
                0x0000000080020000                __ospi_device_0_start__ = .
 *(.ospi_device_0_no_load*)
                0x0000000080020000                . = ALIGN (0x4)
                0x0000000080020000                __ospi_device_0_end__ = .

.OSPI_DEVICE_1_NO_LOAD
                0x0000000080030000        0x0
                0x0000000080030000                . = ALIGN (0x4)
                0x0000000080030000                __ospi_device_1_start__ = .
 *(.ospi_device_1_no_load*)
                0x0000000080030000                . = ALIGN (0x4)
                0x0000000080030000                __ospi_device_1_end__ = .
                0x0000000080020000                __tz_OSPI_DEVICE_0_S = ORIGIN (OSPI_DEVICE_0)

.OSPI_DEVICE_0  0x0000000080020000        0x0
                0x0000000080020000                __ospi_device_0_start__ = .
 *(.ospi_device_0*)
 *(.code_in_ospi_device_0*)
                0x0000000080020000                __ospi_device_0_end__ = .
                0x0000000000000000                __ospi_device_0_code_size__ = (__ospi_device_0_end__ - __ospi_device_0_start__)
                0x0000000000007b20                __ospi_device_0_code_addr__ = (sgstubs_pre_location + SIZEOF (.qspi_non_retentive))

.ospi_device_0_non_retentive
                0x0000000080020000        0x0 load address 0x0000000000007b20
                0x0000000080020000                __ospi_device_0_non_retentive_start__ = .
 *(.ospi_device_0_non_retentive*)
                0x0000000080020000                __ospi_device_0_non_retentive_end__ = .
                0x0000000000000000                __ospi_device_0_non_retentive_size__ = (__ospi_device_0_non_retentive_end__ - __ospi_device_0_non_retentive_start__)
                0x0000000008000000                __ospi_device_0_region_max_size__ = 0x8000000
                0x0000000080020000                __ospi_device_0_region_start_address__ = __ospi_device_0_start__
                0x0000000088020000                __ospi_device_0_region_end_address__ = (__ospi_device_0_start__ + __ospi_device_0_region_max_size__)
                0x0000000080020000                __tz_OSPI_DEVICE_0_N = __ospi_device_0_non_retentive_end__
                0x0000000080030000                __tz_OSPI_DEVICE_1_S = ORIGIN (OSPI_DEVICE_1)

.OSPI_DEVICE_1  0x0000000080030000        0x0
                0x0000000080030000                __ospi_device_1_start__ = .
 *(.ospi_device_1*)
 *(.code_in_ospi_device_1*)
                0x0000000080030000                __ospi_device_1_end__ = .
                0x0000000000000000                __ospi_device_1_code_size__ = (__ospi_device_1_end__ - __ospi_device_1_start__)
                0x0000000000007b20                __ospi_device_1_code_addr__ = (sgstubs_pre_location + (SIZEOF (.qspi_non_retentive) + SIZEOF (.ospi_device_0_non_retentive)))

.ospi_device_1_non_retentive
                0x0000000080030000        0x0 load address 0x0000000000007b20
                0x0000000080030000                __ospi_device_1_non_retentive_start__ = .
 *(.ospi_device_1_non_retentive*)
                0x0000000080030000                __ospi_device_1_non_retentive_end__ = .
                0x0000000000000000                __ospi_device_1_non_retentive_size__ = (__ospi_device_1_non_retentive_end__ - __ospi_device_1_non_retentive_start__)
                0x0000000010000000                __ospi_device_1_region_max_size__ = 0x10000000
                0x0000000080030000                __ospi_device_1_region_start_address__ = __ospi_device_1_start__
                0x0000000090030000                __ospi_device_1_region_end_address__ = (__ospi_device_1_start__ + __ospi_device_1_region_max_size__)
                0x0000000080030000                __tz_OSPI_DEVICE_1_N = __ospi_device_1_non_retentive_end__

.noinit         0x0000000020000090       0x18
                0x0000000020000090                . = ALIGN (0x4)
                0x0000000020000090                __noinit_start = .
 *(.noinit*)
 .noinit        0x0000000020000090       0x14 ./ra/fsp/src/bsp/mcu/all/bsp_clocks.o
                0x00000000200000a8                . = ALIGN (0x8)
 *fill*         0x00000000200000a4        0x4 
 *(.heap.*)
                0x00000000200000a8                __noinit_end = .

.bss            0x00000000200000a8      0x8dc
                0x00000000200000a8                . = ALIGN (0x4)
                0x00000000200000a8                __bss_start__ = .
 *(.bss*)
 .bss           0x00000000200000a8       0x1c /home/maldus/Local/renesas/e2_studio/toolchains/gcc_arm/10_3_2021_10/gcc-arm-none-eabi-10.3-2021.10/bin/../lib/gcc/arm-none-eabi/10.3.1/thumb/v8-m.base/nofp/crtbegin.o
 .bss.ts.0      0x00000000200000c4        0x4 ./src/controller/controller.o
 .bss.state     0x00000000200000c8        0x6 ./src/controller/observer.o
 *fill*         0x00000000200000ce        0x2 
 .bss.watcher   0x00000000200000d0       0x38 ./src/controller/observer.o
 .bss.press1_samples
                0x0000000020000108       0x14 ./src/bsp/adc.o
 .bss.samples_index
                0x000000002000011c        0x2 ./src/bsp/adc.o
 *fill*         0x000000002000011e        0x2 
 .bss.temp1_samples
                0x0000000020000120       0x14 ./src/bsp/adc.o
 .bss.temp_samples
                0x0000000020000134       0x14 ./src/bsp/adc.o
 .bss.ts.0      0x0000000020000148        0x4 ./src/bsp/adc.o
 .bss.filter    0x000000002000014c      0x108 ./src/bsp/coin_reader.o
 .bss.ts.0      0x0000000020000254        0x4 ./src/bsp/coin_reader.o
 .bss.filter    0x0000000020000258       0x88 ./src/bsp/digin.o
 .bss.ready     0x00000000200002e0        0x1 ./src/bsp/digin.o
 *fill*         0x00000000200002e1        0x3 
 .bss.ts.0      0x00000000200002e4        0x4 ./src/bsp/digin.o
 .bss.blink.1   0x00000000200002e8        0x1 ./src/bsp/heartbit.o
 *fill*         0x00000000200002e9        0x3 
 .bss.timestamp.0
                0x00000000200002ec        0x4 ./src/bsp/heartbit.o
 .bss.callback_called
                0x00000000200002f0        0x1 ./src/bsp/power_off.o
                0x00000000200002f0                callback_called
 *fill*         0x00000000200002f1        0x3 
 .bss.user_callback
                0x00000000200002f4        0x4 ./src/bsp/power_off.o
 .bss.user_data
                0x00000000200002f8        0x4 ./src/bsp/power_off.o
 .bss.pwm_periph_period
                0x00000000200002fc        0x4 ./src/bsp/pwm.o
 .bss.last_reception_timestamp
                0x0000000020000300        0x4 ./src/bsp/rs232.o
 .bss.receive_buffer
                0x0000000020000304       0xff ./src/bsp/rs232.o
 *fill*         0x0000000020000403        0x1 
 .bss.receive_index
                0x0000000020000404        0x4 ./src/bsp/rs232.o
 .bss.millis    0x0000000020000408        0x4 ./src/bsp/system.o
 .bss.modbus_minion
                0x000000002000040c       0x24 ./src/adapters/modbus_server.o
 .bss.response.0
                0x0000000020000430      0x100 ./src/adapters/modbus_server.o
 .bss.model.0   0x0000000020000530      0x138 ./src/hal_entry.o
 .bss.g_external_irq0_ctrl
                0x0000000020000668       0x10 ./ra_gen/common_data.o
                0x0000000020000668                g_external_irq0_ctrl
 .bss.g_ioport_ctrl
                0x0000000020000678        0x8 ./ra_gen/common_data.o
                0x0000000020000678                g_ioport_ctrl
 .bss.g_adc0_ctrl
                0x0000000020000680       0x24 ./ra_gen/hal_data.o
                0x0000000020000680                g_adc0_ctrl
 .bss.g_flash0_ctrl
                0x00000000200006a4       0x38 ./ra_gen/hal_data.o
                0x00000000200006a4                g_flash0_ctrl
 .bss.g_timer_pwm_ctrl
                0x00000000200006dc       0x20 ./ra_gen/hal_data.o
                0x00000000200006dc                g_timer_pwm_ctrl
 .bss.g_uart0_ctrl
                0x00000000200006fc       0x30 ./ra_gen/hal_data.o
                0x00000000200006fc                g_uart0_ctrl
 .bss.g_vee0_ctrl
                0x000000002000072c      0x17c ./ra_gen/hal_data.o
                0x000000002000072c                g_vee0_ctrl
 .bss.g_vee0_record_offset
                0x00000000200008a8        0x2 ./ra_gen/hal_data.o
 *fill*         0x00000000200008aa        0x2 
 .bss.g_bsp_group_irq_sources
                0x00000000200008ac       0x34 ./ra/fsp/src/bsp/mcu/all/bsp_group_irq.o
                0x00000000200008ac                g_bsp_group_irq_sources
 .bss.g_protect_pfswe_counter
                0x00000000200008e0        0x4 ./ra/fsp/src/bsp/mcu/all/bsp_io.o
                0x00000000200008e0                g_protect_pfswe_counter
 .bss.gp_renesas_isr_context
                0x00000000200008e4       0x80 ./ra/fsp/src/bsp/mcu/all/bsp_irq.o
                0x00000000200008e4                gp_renesas_isr_context
 .bss.g_protect_counters
                0x0000000020000964        0x8 ./ra/fsp/src/bsp/mcu/all/bsp_register_protection.o
                0x0000000020000964                g_protect_counters
 .bss.current_heap_end.0
                0x000000002000096c        0x4 ./ra/fsp/src/bsp/mcu/all/bsp_sbrk.o
 .bss.SystemCoreClock
                0x0000000020000970        0x4 ./ra/fsp/src/bsp/cmsis/Device/RENESAS/Source/system.o
                0x0000000020000970                SystemCoreClock
 .bss.__malloc_free_list
                0x0000000020000974        0x4 /home/maldus/Local/renesas/e2_studio/toolchains/gcc_arm/10_3_2021_10/gcc-arm-none-eabi-10.3-2021.10/bin/../lib/gcc/arm-none-eabi/10.3.1/../../../../arm-none-eabi/lib/thumb/v8-m.base/nofp/libg_nano.a(lib_a-nano-mallocr.o)
                0x0000000020000974                __malloc_free_list
 .bss.__malloc_sbrk_start
                0x0000000020000978        0x4 /home/maldus/Local/renesas/e2_studio/toolchains/gcc_arm/10_3_2021_10/gcc-arm-none-eabi-10.3-2021.10/bin/../lib/gcc/arm-none-eabi/10.3.1/../../../../arm-none-eabi/lib/thumb/v8-m.base/nofp/libg_nano.a(lib_a-nano-mallocr.o)
                0x0000000020000978                __malloc_sbrk_start
 .bss.errno     0x000000002000097c        0x4 /home/maldus/Local/renesas/e2_studio/toolchains/gcc_arm/10_3_2021_10/gcc-arm-none-eabi-10.3-2021.10/bin/../lib/gcc/arm-none-eabi/10.3.1/../../../../arm-none-eabi/lib/thumb/v8-m.base/nofp/libg_nano.a(lib_a-reent.o)
                0x000000002000097c                errno
 .bss.__lock___malloc_recursive_mutex
                0x0000000020000980        0x1 /home/maldus/Local/renesas/e2_studio/toolchains/gcc_arm/10_3_2021_10/gcc-arm-none-eabi-10.3-2021.10/bin/../lib/gcc/arm-none-eabi/10.3.1/../../../../arm-none-eabi/lib/thumb/v8-m.base/nofp/libg_nano.a(lib_a-lock.o)
                0x0000000020000980                __lock___malloc_recursive_mutex
 *(COMMON)
                0x0000000020000984                . = ALIGN (0x4)
 *fill*         0x0000000020000981        0x3 
                0x0000000020000984                __bss_end__ = .

.heap           0x0000000020000988      0x3e8
                0x0000000020000988                . = ALIGN (0x8)
                0x0000000020000988                __HeapBase = .
 *(.heap)
 .heap          0x0000000020000988      0x3e8 ./ra/fsp/src/bsp/cmsis/Device/RENESAS/Source/startup.o
                0x0000000020000d70                __HeapLimit = .

.stack_dummy    0x0000000020000d70      0x400
                0x0000000020000d70                . = ALIGN (0x8)
                0x0000000020000d70                __StackLimit = .
 *(.stack)
 .stack         0x0000000020000d70      0x400 ./ra/fsp/src/bsp/cmsis/Device/RENESAS/Source/startup.o
                0x0000000020001170                __StackTop = .
 *(.stack*)
                0x0000000020001170                __StackTopAll = .
                0x0000000020001170                PROVIDE (__stack = __StackTopAll)
                0x0000000020001170                __RAM_segment_used_end__ = ALIGN (__StackTopAll, 0x4)
                0x0000000020001400                __tz_RAM_C = DEFINED (RAM_NSC_START)?ABSOLUTE ((RAM_NSC_START - RAM_NS_BUFFER_BLOCK_LENGTH)):__RESERVE_NS_RAM?ABSOLUTE (RAM_NS_BUFFER_BLOCK_START):ALIGN (__RAM_segment_used_end__, 0x400)
                0x0000000020002000                __tz_RAM_N = DEFINED (RAM_NS_START)?ABSOLUTE ((RAM_NS_START - RAM_NS_BUFFER_BLOCK_LENGTH)):__RESERVE_NS_RAM?ABSOLUTE (RAM_NS_BUFFER_BLOCK_START):ALIGN (__tz_RAM_C, 0x2000)

.ns_buffer      0x0000000020001170        0x0
                0x0000000020001170                . = __RESERVE_NS_RAM?ABSOLUTE ((RAM_NS_BUFFER_START & 0xffffffe0)):.
 *(.ns_buffer*)

.data_flash     0x0000000040100000        0x0
                0x0000000040100000                . = ORIGIN (DATA_FLASH)
                0x0000000040100000                __tz_DATA_FLASH_S = .
                0x0000000040100000                __Data_Flash_Start = .
 *(.data_flash*)
                0x0000000040100000                __Data_Flash_End = .
                0x0000000040100000                __tz_DATA_FLASH_N = DEFINED (DATA_FLASH_NS_START)?ABSOLUTE (DATA_FLASH_NS_START):__RESERVE_NS_RAM?ABSOLUTE ((DATA_FLASH_START + DATA_FLASH_LENGTH)):ALIGN (0x400)
                0x0000000080010000                __tz_SDRAM_S = ORIGIN (SDRAM)

.sdram          0x0000000080010000        0x0
                0x0000000080010000                __SDRAM_Start = .
 *(.sdram*)
 *(.frame*)
                0x0000000080010000                __SDRAM_End = .
                0x0000000080010000                __tz_SDRAM_N = __SDRAM_End
                0x0000000001010018                __tz_ID_CODE_S = ORIGIN (ID_CODE)
                0x0000000001010018                __tz_ID_CODE_N = __tz_ID_CODE_S

.id_code        0x0000000001010018       0x1c
                0x0000000001010018                __ID_Code_Start = .
 *(.id_code*)
 .id_code       0x0000000001010018       0x1c ./ra/fsp/src/bsp/mcu/all/bsp_rom_registers.o
                0x0000000001010034                __ID_Code_End = .
                0x0000000000000000                __tz_OPTION_SETTING_S = ORIGIN (OPTION_SETTING_OFS)

.rel.dyn        0x0000000001010034        0x0
 .rel.iplt      0x0000000001010034        0x0 /home/maldus/Local/renesas/e2_studio/toolchains/gcc_arm/10_3_2021_10/gcc-arm-none-eabi-10.3-2021.10/bin/../lib/gcc/arm-none-eabi/10.3.1/thumb/v8-m.base/nofp/crtbegin.o

.option_setting_ofs
                0x0000000000000000        0x0
                0x0000000000000000                __OPTION_SETTING_OFS_Start = .
 *(.option_setting_ofs0)
                0x0000000000000000                . = PROJECT_SECURE_OR_FLAT?(__OPTION_SETTING_OFS_Start + 0x4):__OPTION_SETTING_OFS_Start
 *(.option_setting_ofs2)
                0x0000000000000000                . = PROJECT_SECURE_OR_FLAT?(__OPTION_SETTING_OFS_Start + 0x10):__OPTION_SETTING_OFS_Start
 *(.option_setting_dualsel)
                0x0000000000000000                __OPTION_SETTING_OFS_End = .

.option_setting_sas
                0x0000000000000034        0x0
                0x0000000000000034                __OPTION_SETTING_SAS_Start = .
 *(.option_setting_sas)
                0x0000000000000034                __OPTION_SETTING_SAS_End = .
                0x0000000000000080                __tz_OPTION_SETTING_N = ABSOLUTE (OPTION_SETTING_START_NS)

.option_setting_ns
                0x0000000000000000        0x0
                0x0000000000000000                __OPTION_SETTING_NS_Start = .
 *(.option_setting_ofs1)
                0x0000000000000000                . = USE_OPTION_SETTING_NS?(__OPTION_SETTING_NS_Start + 0x4):__OPTION_SETTING_NS_Start
 *(.option_setting_ofs3)
                0x0000000000000000                . = USE_OPTION_SETTING_NS?(__OPTION_SETTING_NS_Start + 0x10):__OPTION_SETTING_NS_Start
 *(.option_setting_banksel)
                0x0000000000000000                . = USE_OPTION_SETTING_NS?(__OPTION_SETTING_NS_Start + 0x40):__OPTION_SETTING_NS_Start
 *(.option_setting_bps0)
                0x0000000000000000                . = USE_OPTION_SETTING_NS?(__OPTION_SETTING_NS_Start + 0x44):__OPTION_SETTING_NS_Start
 *(.option_setting_bps1)
                0x0000000000000000                . = USE_OPTION_SETTING_NS?(__OPTION_SETTING_NS_Start + 0x48):__OPTION_SETTING_NS_Start
 *(.option_setting_bps2)
                0x0000000000000000                . = USE_OPTION_SETTING_NS?(__OPTION_SETTING_NS_Start + 0x4c):__OPTION_SETTING_NS_Start
 *(.option_setting_bps3)
                0x0000000000000000                . = USE_OPTION_SETTING_NS?(__OPTION_SETTING_NS_Start + 0x60):__OPTION_SETTING_NS_Start
 *(.option_setting_pbps0)
                0x0000000000000000                . = USE_OPTION_SETTING_NS?(__OPTION_SETTING_NS_Start + 0x64):__OPTION_SETTING_NS_Start
 *(.option_setting_pbps1)
                0x0000000000000000                . = USE_OPTION_SETTING_NS?(__OPTION_SETTING_NS_Start + 0x68):__OPTION_SETTING_NS_Start
 *(.option_setting_pbps2)
                0x0000000000000000                . = USE_OPTION_SETTING_NS?(__OPTION_SETTING_NS_Start + 0x6c):__OPTION_SETTING_NS_Start
 *(.option_setting_pbps3)
                0x0000000000000000                __OPTION_SETTING_NS_End = .
                0x0000000080000000                __tz_OPTION_SETTING_S_S = ORIGIN (OPTION_SETTING_S)

.option_setting_s
                0x0000000080000000        0x0
                0x0000000080000000                __OPTION_SETTING_S_Start = .
 *(.option_setting_ofs1_sec)
                0x0000000080000000                . = PROJECT_SECURE_OR_FLAT?(__OPTION_SETTING_S_Start + 0x4):__OPTION_SETTING_S_Start
 *(.option_setting_ofs3_sec)
                0x0000000080000000                . = PROJECT_SECURE_OR_FLAT?(__OPTION_SETTING_S_Start + 0x10):__OPTION_SETTING_S_Start
 *(.option_setting_banksel_sec)
                0x0000000080000000                . = PROJECT_SECURE_OR_FLAT?(__OPTION_SETTING_S_Start + 0x40):__OPTION_SETTING_S_Start
 *(.option_setting_bps_sec0)
                0x0000000080000000                . = PROJECT_SECURE_OR_FLAT?(__OPTION_SETTING_S_Start + 0x44):__OPTION_SETTING_S_Start
 *(.option_setting_bps_sec1)
                0x0000000080000000                . = PROJECT_SECURE_OR_FLAT?(__OPTION_SETTING_S_Start + 0x48):__OPTION_SETTING_S_Start
 *(.option_setting_bps_sec2)
                0x0000000080000000                . = PROJECT_SECURE_OR_FLAT?(__OPTION_SETTING_S_Start + 0x4c):__OPTION_SETTING_S_Start
 *(.option_setting_bps_sec3)
                0x0000000080000000                . = PROJECT_SECURE_OR_FLAT?(__OPTION_SETTING_S_Start + 0x60):__OPTION_SETTING_S_Start
 *(.option_setting_pbps_sec0)
                0x0000000080000000                . = PROJECT_SECURE_OR_FLAT?(__OPTION_SETTING_S_Start + 0x64):__OPTION_SETTING_S_Start
 *(.option_setting_pbps_sec1)
                0x0000000080000000                . = PROJECT_SECURE_OR_FLAT?(__OPTION_SETTING_S_Start + 0x68):__OPTION_SETTING_S_Start
 *(.option_setting_pbps_sec2)
                0x0000000080000000                . = PROJECT_SECURE_OR_FLAT?(__OPTION_SETTING_S_Start + 0x6c):__OPTION_SETTING_S_Start
 *(.option_setting_pbps_sec3)
                0x0000000080000000                . = PROJECT_SECURE_OR_FLAT?(__OPTION_SETTING_S_Start + 0x80):__OPTION_SETTING_S_Start
 *(.option_setting_ofs1_sel)
                0x0000000080000000                . = PROJECT_SECURE_OR_FLAT?(__OPTION_SETTING_S_Start + 0x84):__OPTION_SETTING_S_Start
 *(.option_setting_ofs3_sel)
                0x0000000080000000                . = PROJECT_SECURE_OR_FLAT?(__OPTION_SETTING_S_Start + 0x90):__OPTION_SETTING_S_Start
 *(.option_setting_banksel_sel)
                0x0000000080000000                . = PROJECT_SECURE_OR_FLAT?(__OPTION_SETTING_S_Start + 0xc0):__OPTION_SETTING_S_Start
 *(.option_setting_bps_sel0)
                0x0000000080000000                . = PROJECT_SECURE_OR_FLAT?(__OPTION_SETTING_S_Start + 0xc4):__OPTION_SETTING_S_Start
 *(.option_setting_bps_sel1)
                0x0000000080000000                . = PROJECT_SECURE_OR_FLAT?(__OPTION_SETTING_S_Start + 0xc8):__OPTION_SETTING_S_Start
 *(.option_setting_bps_sel2)
                0x0000000080000000                . = PROJECT_SECURE_OR_FLAT?(__OPTION_SETTING_S_Start + 0xcc):__OPTION_SETTING_S_Start
 *(.option_setting_bps_sel3)
                0x0000000080000000                __OPTION_SETTING_S_End = .
                0x0000000080000000                __tz_OPTION_SETTING_S_N = __OPTION_SETTING_S_End
OUTPUT(minieco_paperoga_b_rotondi.elf elf32-littlearm)
LOAD linker stubs

.ARM.attributes
                0x0000000000000000       0x2c
 .ARM.attributes
                0x0000000000000000       0x22 /home/maldus/Local/renesas/e2_studio/toolchains/gcc_arm/10_3_2021_10/gcc-arm-none-eabi-10.3-2021.10/bin/../lib/gcc/arm-none-eabi/10.3.1/thumb/v8-m.base/nofp/crti.o
 .ARM.attributes
                0x0000000000000022       0x30 /home/maldus/Local/renesas/e2_studio/toolchains/gcc_arm/10_3_2021_10/gcc-arm-none-eabi-10.3-2021.10/bin/../lib/gcc/arm-none-eabi/10.3.1/thumb/v8-m.base/nofp/crtbegin.o
 .ARM.attributes
                0x0000000000000052       0x30 ./src/services/crc16-ccitt.o
 .ARM.attributes
                0x0000000000000082       0x30 ./src/model/cycle.o
 .ARM.attributes
                0x00000000000000b2       0x30 ./src/model/heating.o
 .ARM.attributes
                0x00000000000000e2       0x30 ./src/model/model.o
 .ARM.attributes
                0x0000000000000112       0x30 ./src/controller/controller.o
 .ARM.attributes
                0x0000000000000142       0x30 ./src/controller/observer.o
 .ARM.attributes
                0x0000000000000172       0x30 ./src/bsp/adc.o
 .ARM.attributes
                0x00000000000001a2       0x30 ./src/bsp/coin_reader.o
 .ARM.attributes
                0x00000000000001d2       0x30 ./src/bsp/digin.o
 .ARM.attributes
                0x0000000000000202       0x30 ./src/bsp/heartbit.o
 .ARM.attributes
                0x0000000000000232       0x30 ./src/bsp/power_off.o
 .ARM.attributes
                0x0000000000000262       0x30 ./src/bsp/pwm.o
 .ARM.attributes
                0x0000000000000292       0x30 ./src/bsp/relay.o
 .ARM.attributes
                0x00000000000002c2       0x30 ./src/bsp/rs232.o
 .ARM.attributes
                0x00000000000002f2       0x30 ./src/bsp/spi.o
 .ARM.attributes
                0x0000000000000322       0x30 ./src/bsp/system.o
 .ARM.attributes
                0x0000000000000352       0x30 ./src/bsp/temperature_humidity_probe.o
 .ARM.attributes
                0x0000000000000382       0x30 ./src/adapters/modbus_server.o
 .ARM.attributes
                0x00000000000003b2       0x30 ./src/hal_entry.o
 .ARM.attributes
                0x00000000000003e2       0x30 ./ra_gen/common_data.o
 .ARM.attributes
                0x0000000000000412       0x30 ./ra_gen/hal_data.o
 .ARM.attributes
                0x0000000000000442       0x30 ./ra_gen/main.o
 .ARM.attributes
                0x0000000000000472       0x30 ./ra_gen/pin_data.o
 .ARM.attributes
                0x00000000000004a2       0x30 ./ra_gen/vector_data.o
 .ARM.attributes
                0x00000000000004d2       0x30 ./ra/fsp/src/rm_vee_flash/rm_vee_flash.o
 .ARM.attributes
                0x0000000000000502       0x30 ./ra/fsp/src/r_sci_uart/r_sci_uart.o
 .ARM.attributes
                0x0000000000000532       0x30 ./ra/fsp/src/r_ioport/r_ioport.o
 .ARM.attributes
                0x0000000000000562       0x30 ./ra/fsp/src/r_icu/r_icu.o
 .ARM.attributes
                0x0000000000000592       0x30 ./ra/fsp/src/r_gpt/r_gpt.o
 .ARM.attributes
                0x00000000000005c2       0x30 ./ra/fsp/src/r_flash_lp/r_flash_lp.o
 .ARM.attributes
                0x00000000000005f2       0x30 ./ra/fsp/src/r_adc/r_adc.o
 .ARM.attributes
                0x0000000000000622       0x30 ./ra/fsp/src/bsp/mcu/all/bsp_clocks.o
 .ARM.attributes
                0x0000000000000652       0x30 ./ra/fsp/src/bsp/mcu/all/bsp_common.o
 .ARM.attributes
                0x0000000000000682       0x30 ./ra/fsp/src/bsp/mcu/all/bsp_delay.o
 .ARM.attributes
                0x00000000000006b2       0x30 ./ra/fsp/src/bsp/mcu/all/bsp_group_irq.o
 .ARM.attributes
                0x00000000000006e2       0x30 ./ra/fsp/src/bsp/mcu/all/bsp_io.o
 .ARM.attributes
                0x0000000000000712       0x30 ./ra/fsp/src/bsp/mcu/all/bsp_irq.o
 .ARM.attributes
                0x0000000000000742       0x30 ./ra/fsp/src/bsp/mcu/all/bsp_register_protection.o
 .ARM.attributes
                0x0000000000000772       0x30 ./ra/fsp/src/bsp/mcu/all/bsp_rom_registers.o
 .ARM.attributes
                0x00000000000007a2       0x30 ./ra/fsp/src/bsp/mcu/all/bsp_sbrk.o
 .ARM.attributes
                0x00000000000007d2       0x30 ./ra/fsp/src/bsp/cmsis/Device/RENESAS/Source/startup.o
 .ARM.attributes
                0x0000000000000802       0x30 ./ra/fsp/src/bsp/cmsis/Device/RENESAS/Source/system.o
 .ARM.attributes
                0x0000000000000832       0x30 ./libs/c-watcher/src/watcher.o
 .ARM.attributes
                0x0000000000000862       0x30 ./libs/c-stopwatch/src/stopwatch.o
 .ARM.attributes
                0x0000000000000892       0x30 ./libs/c-stopwatch/src/stopwatch_timer.o
 .ARM.attributes
                0x00000000000008c2       0x30 ./libs/c-debounce/src/debounce.o
 .ARM.attributes
                0x00000000000008f2       0x30 ./libs/c-debounce/src/pulsecounter.o
 .ARM.attributes
                0x0000000000000922       0x22 /home/maldus/Local/renesas/e2_studio/toolchains/gcc_arm/10_3_2021_10/gcc-arm-none-eabi-10.3-2021.10/bin/../lib/gcc/arm-none-eabi/10.3.1/thumb/v8-m.base/nofp/libgcc.a(_clzsi2.o)
 .ARM.attributes
                0x0000000000000944       0x22 /home/maldus/Local/renesas/e2_studio/toolchains/gcc_arm/10_3_2021_10/gcc-arm-none-eabi-10.3-2021.10/bin/../lib/gcc/arm-none-eabi/10.3.1/thumb/v8-m.base/nofp/libgcc.a(_aeabi_uldivmod.o)
 .ARM.attributes
                0x0000000000000966       0x30 /home/maldus/Local/renesas/e2_studio/toolchains/gcc_arm/10_3_2021_10/gcc-arm-none-eabi-10.3-2021.10/bin/../lib/gcc/arm-none-eabi/10.3.1/thumb/v8-m.base/nofp/libgcc.a(_muldi3.o)
 .ARM.attributes
                0x0000000000000996       0x30 /home/maldus/Local/renesas/e2_studio/toolchains/gcc_arm/10_3_2021_10/gcc-arm-none-eabi-10.3-2021.10/bin/../lib/gcc/arm-none-eabi/10.3.1/thumb/v8-m.base/nofp/libgcc.a(_udivmoddi4.o)
 .ARM.attributes
                0x00000000000009c6       0x22 /home/maldus/Local/renesas/e2_studio/toolchains/gcc_arm/10_3_2021_10/gcc-arm-none-eabi-10.3-2021.10/bin/../lib/gcc/arm-none-eabi/10.3.1/thumb/v8-m.base/nofp/libgcc.a(_dvmd_tls.o)
 .ARM.attributes
                0x00000000000009e8       0x30 /home/maldus/Local/renesas/e2_studio/toolchains/gcc_arm/10_3_2021_10/gcc-arm-none-eabi-10.3-2021.10/bin/../lib/gcc/arm-none-eabi/10.3.1/../../../../arm-none-eabi/lib/thumb/v8-m.base/nofp/libg_nano.a(lib_a-errno.o)
 .ARM.attributes
                0x0000000000000a18       0x30 /home/maldus/Local/renesas/e2_studio/toolchains/gcc_arm/10_3_2021_10/gcc-arm-none-eabi-10.3-2021.10/bin/../lib/gcc/arm-none-eabi/10.3.1/../../../../arm-none-eabi/lib/thumb/v8-m.base/nofp/libg_nano.a(lib_a-impure.o)
 .ARM.attributes
                0x0000000000000a48       0x30 /home/maldus/Local/renesas/e2_studio/toolchains/gcc_arm/10_3_2021_10/gcc-arm-none-eabi-10.3-2021.10/bin/../lib/gcc/arm-none-eabi/10.3.1/../../../../arm-none-eabi/lib/thumb/v8-m.base/nofp/libg_nano.a(lib_a-malloc.o)
 .ARM.attributes
                0x0000000000000a78       0x30 /home/maldus/Local/renesas/e2_studio/toolchains/gcc_arm/10_3_2021_10/gcc-arm-none-eabi-10.3-2021.10/bin/../lib/gcc/arm-none-eabi/10.3.1/../../../../arm-none-eabi/lib/thumb/v8-m.base/nofp/libg_nano.a(lib_a-memcmp.o)
 .ARM.attributes
                0x0000000000000aa8       0x30 /home/maldus/Local/renesas/e2_studio/toolchains/gcc_arm/10_3_2021_10/gcc-arm-none-eabi-10.3-2021.10/bin/../lib/gcc/arm-none-eabi/10.3.1/../../../../arm-none-eabi/lib/thumb/v8-m.base/nofp/libg_nano.a(lib_a-memcpy-stub.o)
 .ARM.attributes
                0x0000000000000ad8       0x30 /home/maldus/Local/renesas/e2_studio/toolchains/gcc_arm/10_3_2021_10/gcc-arm-none-eabi-10.3-2021.10/bin/../lib/gcc/arm-none-eabi/10.3.1/../../../../arm-none-eabi/lib/thumb/v8-m.base/nofp/libg_nano.a(lib_a-memset.o)
 .ARM.attributes
                0x0000000000000b08       0x30 /home/maldus/Local/renesas/e2_studio/toolchains/gcc_arm/10_3_2021_10/gcc-arm-none-eabi-10.3-2021.10/bin/../lib/gcc/arm-none-eabi/10.3.1/../../../../arm-none-eabi/lib/thumb/v8-m.base/nofp/libg_nano.a(lib_a-nano-freer.o)
 .ARM.attributes
                0x0000000000000b38       0x30 /home/maldus/Local/renesas/e2_studio/toolchains/gcc_arm/10_3_2021_10/gcc-arm-none-eabi-10.3-2021.10/bin/../lib/gcc/arm-none-eabi/10.3.1/../../../../arm-none-eabi/lib/thumb/v8-m.base/nofp/libg_nano.a(lib_a-nano-mallocr.o)
 .ARM.attributes
                0x0000000000000b68       0x30 /home/maldus/Local/renesas/e2_studio/toolchains/gcc_arm/10_3_2021_10/gcc-arm-none-eabi-10.3-2021.10/bin/../lib/gcc/arm-none-eabi/10.3.1/../../../../arm-none-eabi/lib/thumb/v8-m.base/nofp/libg_nano.a(lib_a-realloc.o)
 .ARM.attributes
                0x0000000000000b98       0x30 /home/maldus/Local/renesas/e2_studio/toolchains/gcc_arm/10_3_2021_10/gcc-arm-none-eabi-10.3-2021.10/bin/../lib/gcc/arm-none-eabi/10.3.1/../../../../arm-none-eabi/lib/thumb/v8-m.base/nofp/libg_nano.a(lib_a-sbrkr.o)
 .ARM.attributes
                0x0000000000000bc8       0x30 /home/maldus/Local/renesas/e2_studio/toolchains/gcc_arm/10_3_2021_10/gcc-arm-none-eabi-10.3-2021.10/bin/../lib/gcc/arm-none-eabi/10.3.1/../../../../arm-none-eabi/lib/thumb/v8-m.base/nofp/libg_nano.a(lib_a-mlock.o)
 .ARM.attributes
                0x0000000000000bf8       0x30 /home/maldus/Local/renesas/e2_studio/toolchains/gcc_arm/10_3_2021_10/gcc-arm-none-eabi-10.3-2021.10/bin/../lib/gcc/arm-none-eabi/10.3.1/../../../../arm-none-eabi/lib/thumb/v8-m.base/nofp/libg_nano.a(lib_a-nano-reallocr.o)
 .ARM.attributes
                0x0000000000000c28       0x30 /home/maldus/Local/renesas/e2_studio/toolchains/gcc_arm/10_3_2021_10/gcc-arm-none-eabi-10.3-2021.10/bin/../lib/gcc/arm-none-eabi/10.3.1/../../../../arm-none-eabi/lib/thumb/v8-m.base/nofp/libg_nano.a(lib_a-reent.o)
 .ARM.attributes
                0x0000000000000c58       0x30 /home/maldus/Local/renesas/e2_studio/toolchains/gcc_arm/10_3_2021_10/gcc-arm-none-eabi-10.3-2021.10/bin/../lib/gcc/arm-none-eabi/10.3.1/../../../../arm-none-eabi/lib/thumb/v8-m.base/nofp/libg_nano.a(lib_a-lock.o)
 .ARM.attributes
                0x0000000000000c88       0x30 /home/maldus/Local/renesas/e2_studio/toolchains/gcc_arm/10_3_2021_10/gcc-arm-none-eabi-10.3-2021.10/bin/../lib/gcc/arm-none-eabi/10.3.1/../../../../arm-none-eabi/lib/thumb/v8-m.base/nofp/libg_nano.a(lib_a-nano-msizer.o)
 .ARM.attributes
                0x0000000000000cb8       0x30 /home/maldus/Local/renesas/e2_studio/toolchains/gcc_arm/10_3_2021_10/gcc-arm-none-eabi-10.3-2021.10/bin/../lib/gcc/arm-none-eabi/10.3.1/thumb/v8-m.base/nofp/crtend.o
 .ARM.attributes
                0x0000000000000ce8       0x22 /home/maldus/Local/renesas/e2_studio/toolchains/gcc_arm/10_3_2021_10/gcc-arm-none-eabi-10.3-2021.10/bin/../lib/gcc/arm-none-eabi/10.3.1/thumb/v8-m.base/nofp/crtn.o

.comment        0x0000000000000000       0x49
 .comment       0x0000000000000000       0x49 ./src/services/crc16-ccitt.o
                                         0x4a (size before relaxing)
 .comment       0x0000000000000049       0x4a ./src/model/cycle.o
 .comment       0x0000000000000049       0x4a ./src/model/heating.o
 .comment       0x0000000000000049       0x4a ./src/model/model.o
 .comment       0x0000000000000049       0x4a ./src/controller/controller.o
 .comment       0x0000000000000049       0x4a ./src/controller/observer.o
 .comment       0x0000000000000049       0x4a ./src/bsp/adc.o
 .comment       0x0000000000000049       0x4a ./src/bsp/coin_reader.o
 .comment       0x0000000000000049       0x4a ./src/bsp/digin.o
 .comment       0x0000000000000049       0x4a ./src/bsp/heartbit.o
 .comment       0x0000000000000049       0x4a ./src/bsp/power_off.o
 .comment       0x0000000000000049       0x4a ./src/bsp/pwm.o
 .comment       0x0000000000000049       0x4a ./src/bsp/relay.o
 .comment       0x0000000000000049       0x4a ./src/bsp/rs232.o
 .comment       0x0000000000000049       0x4a ./src/bsp/spi.o
 .comment       0x0000000000000049       0x4a ./src/bsp/system.o
 .comment       0x0000000000000049       0x4a ./src/bsp/temperature_humidity_probe.o
 .comment       0x0000000000000049       0x4a ./src/adapters/modbus_server.o
 .comment       0x0000000000000049       0x4a ./src/hal_entry.o
 .comment       0x0000000000000049       0x4a ./ra_gen/common_data.o
 .comment       0x0000000000000049       0x4a ./ra_gen/hal_data.o
 .comment       0x0000000000000049       0x4a ./ra_gen/main.o
 .comment       0x0000000000000049       0x4a ./ra_gen/pin_data.o
 .comment       0x0000000000000049       0x4a ./ra_gen/vector_data.o
 .comment       0x0000000000000049       0x4a ./ra/fsp/src/rm_vee_flash/rm_vee_flash.o
 .comment       0x0000000000000049       0x4a ./ra/fsp/src/r_sci_uart/r_sci_uart.o
 .comment       0x0000000000000049       0x4a ./ra/fsp/src/r_ioport/r_ioport.o
 .comment       0x0000000000000049       0x4a ./ra/fsp/src/r_icu/r_icu.o
 .comment       0x0000000000000049       0x4a ./ra/fsp/src/r_gpt/r_gpt.o
 .comment       0x0000000000000049       0x4a ./ra/fsp/src/r_flash_lp/r_flash_lp.o
 .comment       0x0000000000000049       0x4a ./ra/fsp/src/r_adc/r_adc.o
 .comment       0x0000000000000049       0x4a ./ra/fsp/src/bsp/mcu/all/bsp_clocks.o
 .comment       0x0000000000000049       0x4a ./ra/fsp/src/bsp/mcu/all/bsp_common.o
 .comment       0x0000000000000049       0x4a ./ra/fsp/src/bsp/mcu/all/bsp_delay.o
 .comment       0x0000000000000049       0x4a ./ra/fsp/src/bsp/mcu/all/bsp_group_irq.o
 .comment       0x0000000000000049       0x4a ./ra/fsp/src/bsp/mcu/all/bsp_io.o
 .comment       0x0000000000000049       0x4a ./ra/fsp/src/bsp/mcu/all/bsp_irq.o
 .comment       0x0000000000000049       0x4a ./ra/fsp/src/bsp/mcu/all/bsp_register_protection.o
 .comment       0x0000000000000049       0x4a ./ra/fsp/src/bsp/mcu/all/bsp_rom_registers.o
 .comment       0x0000000000000049       0x4a ./ra/fsp/src/bsp/mcu/all/bsp_sbrk.o
 .comment       0x0000000000000049       0x4a ./ra/fsp/src/bsp/cmsis/Device/RENESAS/Source/startup.o
 .comment       0x0000000000000049       0x4a ./ra/fsp/src/bsp/cmsis/Device/RENESAS/Source/system.o
 .comment       0x0000000000000049       0x4a ./libs/c-watcher/src/watcher.o
 .comment       0x0000000000000049       0x4a ./libs/c-stopwatch/src/stopwatch.o
 .comment       0x0000000000000049       0x4a ./libs/c-stopwatch/src/stopwatch_timer.o
 .comment       0x0000000000000049       0x4a ./libs/c-debounce/src/debounce.o
 .comment       0x0000000000000049       0x4a ./libs/c-debounce/src/pulsecounter.o

.debug_info     0x0000000000000000    0x6d17c
 .debug_info    0x0000000000000000       0xf3 ./src/services/crc16-ccitt.o
 .debug_info    0x00000000000000f3     0x1fff ./src/model/cycle.o
 .debug_info    0x00000000000020f2      0xe9b ./src/model/heating.o
 .debug_info    0x0000000000002f8d     0x38a4 ./src/model/model.o
 .debug_info    0x0000000000006831      0xeb7 ./src/controller/controller.o
 .debug_info    0x00000000000076e8     0x1203 ./src/controller/observer.o
 .debug_info    0x00000000000088eb     0x3c20 ./src/bsp/adc.o
 .debug_info    0x000000000000c50b     0x1642 ./src/bsp/coin_reader.o
 .debug_info    0x000000000000db4d     0x1598 ./src/bsp/digin.o
 .debug_info    0x000000000000f0e5     0x1391 ./src/bsp/heartbit.o
 .debug_info    0x0000000000010476     0x187f ./src/bsp/power_off.o
 .debug_info    0x0000000000011cf5     0x398b ./src/bsp/pwm.o
 .debug_info    0x0000000000015680     0x128a ./src/bsp/relay.o
 .debug_info    0x000000000001690a     0x14e1 ./src/bsp/rs232.o
 .debug_info    0x0000000000017deb     0x135d ./src/bsp/spi.o
 .debug_info    0x0000000000019148      0x45a ./src/bsp/system.o
 .debug_info    0x00000000000195a2     0x13f7 ./src/bsp/temperature_humidity_probe.o
 .debug_info    0x000000000001a999     0x39f9 ./src/adapters/modbus_server.o
 .debug_info    0x000000000001e392     0x2c79 ./src/hal_entry.o
 .debug_info    0x000000000002100b     0x15ec ./ra_gen/common_data.o
 .debug_info    0x00000000000225f7     0xb719 ./ra_gen/hal_data.o
 .debug_info    0x000000000002dd10       0xb8 ./ra_gen/main.o
 .debug_info    0x000000000002ddc8      0xa34 ./ra_gen/pin_data.o
 .debug_info    0x000000000002e7fc      0xa4d ./ra_gen/vector_data.o
 .debug_info    0x000000000002f249     0x281a ./ra/fsp/src/rm_vee_flash/rm_vee_flash.o
 .debug_info    0x0000000000031a63     0x8fa4 ./ra/fsp/src/r_sci_uart/r_sci_uart.o
 .debug_info    0x000000000003aa07     0x2f58 ./ra/fsp/src/r_ioport/r_ioport.o
 .debug_info    0x000000000003d95f     0x1b39 ./ra/fsp/src/r_icu/r_icu.o
 .debug_info    0x000000000003f498     0xa119 ./ra/fsp/src/r_gpt/r_gpt.o
 .debug_info    0x00000000000495b1     0x6fea ./ra/fsp/src/r_flash_lp/r_flash_lp.o
 .debug_info    0x000000000005059b     0xa299 ./ra/fsp/src/r_adc/r_adc.o
 .debug_info    0x000000000005a834     0x664b ./ra/fsp/src/bsp/mcu/all/bsp_clocks.o
 .debug_info    0x0000000000060e7f      0x955 ./ra/fsp/src/bsp/mcu/all/bsp_common.o
 .debug_info    0x00000000000617d4      0x1f8 ./ra/fsp/src/bsp/mcu/all/bsp_delay.o
 .debug_info    0x00000000000619cc     0x14be ./ra/fsp/src/bsp/mcu/all/bsp_group_irq.o
 .debug_info    0x0000000000062e8a       0xb1 ./ra/fsp/src/bsp/mcu/all/bsp_io.o
 .debug_info    0x0000000000062f3b     0x1a87 ./ra/fsp/src/bsp/mcu/all/bsp_irq.o
 .debug_info    0x00000000000649c2     0x4096 ./ra/fsp/src/bsp/mcu/all/bsp_register_protection.o
 .debug_info    0x0000000000068a58       0xe4 ./ra/fsp/src/bsp/mcu/all/bsp_rom_registers.o
 .debug_info    0x0000000000068b3c      0x149 ./ra/fsp/src/bsp/mcu/all/bsp_sbrk.o
 .debug_info    0x0000000000068c85      0x173 ./ra/fsp/src/bsp/cmsis/Device/RENESAS/Source/startup.o
 .debug_info    0x0000000000068df8     0x23aa ./ra/fsp/src/bsp/cmsis/Device/RENESAS/Source/system.o
 .debug_info    0x000000000006b1a2     0x1125 ./libs/c-watcher/src/watcher.o
 .debug_info    0x000000000006c2c7      0x4dc ./libs/c-stopwatch/src/stopwatch.o
 .debug_info    0x000000000006c7a3      0x55c ./libs/c-stopwatch/src/stopwatch_timer.o
 .debug_info    0x000000000006ccff      0x259 ./libs/c-debounce/src/debounce.o
 .debug_info    0x000000000006cf58      0x224 ./libs/c-debounce/src/pulsecounter.o

.debug_abbrev   0x0000000000000000     0x731e
 .debug_abbrev  0x0000000000000000       0xc6 ./src/services/crc16-ccitt.o
 .debug_abbrev  0x00000000000000c6      0x339 ./src/model/cycle.o
 .debug_abbrev  0x00000000000003ff      0x336 ./src/model/heating.o
 .debug_abbrev  0x0000000000000735      0x41d ./src/model/model.o
 .debug_abbrev  0x0000000000000b52      0x2eb ./src/controller/controller.o
 .debug_abbrev  0x0000000000000e3d      0x25c ./src/controller/observer.o
 .debug_abbrev  0x0000000000001099      0x34b ./src/bsp/adc.o
 .debug_abbrev  0x00000000000013e4      0x2d0 ./src/bsp/coin_reader.o
 .debug_abbrev  0x00000000000016b4      0x2cc ./src/bsp/digin.o
 .debug_abbrev  0x0000000000001980      0x1d4 ./src/bsp/heartbit.o
 .debug_abbrev  0x0000000000001b54      0x2bf ./src/bsp/power_off.o
 .debug_abbrev  0x0000000000001e13      0x279 ./src/bsp/pwm.o
 .debug_abbrev  0x000000000000208c      0x164 ./src/bsp/relay.o
 .debug_abbrev  0x00000000000021f0      0x314 ./src/bsp/rs232.o
 .debug_abbrev  0x0000000000002504      0x1c5 ./src/bsp/spi.o
 .debug_abbrev  0x00000000000026c9      0x1e3 ./src/bsp/system.o
 .debug_abbrev  0x00000000000028ac      0x1cc ./src/bsp/temperature_humidity_probe.o
 .debug_abbrev  0x0000000000002a78      0x505 ./src/adapters/modbus_server.o
 .debug_abbrev  0x0000000000002f7d      0x2e1 ./src/hal_entry.o
 .debug_abbrev  0x000000000000325e      0x140 ./ra_gen/common_data.o
 .debug_abbrev  0x000000000000339e      0x31d ./ra_gen/hal_data.o
 .debug_abbrev  0x00000000000036bb       0x66 ./ra_gen/main.o
 .debug_abbrev  0x0000000000003721       0xf6 ./ra_gen/pin_data.o
 .debug_abbrev  0x0000000000003817       0x9e ./ra_gen/vector_data.o
 .debug_abbrev  0x00000000000038b5      0x3aa ./ra/fsp/src/rm_vee_flash/rm_vee_flash.o
 .debug_abbrev  0x0000000000003c5f      0x4f6 ./ra/fsp/src/r_sci_uart/r_sci_uart.o
 .debug_abbrev  0x0000000000004155      0x3db ./ra/fsp/src/r_ioport/r_ioport.o
 .debug_abbrev  0x0000000000004530      0x403 ./ra/fsp/src/r_icu/r_icu.o
 .debug_abbrev  0x0000000000004933      0x549 ./ra/fsp/src/r_gpt/r_gpt.o
 .debug_abbrev  0x0000000000004e7c      0x44f ./ra/fsp/src/r_flash_lp/r_flash_lp.o
 .debug_abbrev  0x00000000000052cb      0x52b ./ra/fsp/src/r_adc/r_adc.o
 .debug_abbrev  0x00000000000057f6      0x30e ./ra/fsp/src/bsp/mcu/all/bsp_clocks.o
 .debug_abbrev  0x0000000000005b04      0x183 ./ra/fsp/src/bsp/mcu/all/bsp_common.o
 .debug_abbrev  0x0000000000005c87       0xf0 ./ra/fsp/src/bsp/mcu/all/bsp_delay.o
 .debug_abbrev  0x0000000000005d77      0x230 ./ra/fsp/src/bsp/mcu/all/bsp_group_irq.o
 .debug_abbrev  0x0000000000005fa7       0x5e ./ra/fsp/src/bsp/mcu/all/bsp_io.o
 .debug_abbrev  0x0000000000006005      0x29c ./ra/fsp/src/bsp/mcu/all/bsp_irq.o
 .debug_abbrev  0x00000000000062a1      0x235 ./ra/fsp/src/bsp/mcu/all/bsp_register_protection.o
 .debug_abbrev  0x00000000000064d6       0x5f ./ra/fsp/src/bsp/mcu/all/bsp_rom_registers.o
 .debug_abbrev  0x0000000000006535       0xcc ./ra/fsp/src/bsp/mcu/all/bsp_sbrk.o
 .debug_abbrev  0x0000000000006601       0xe6 ./ra/fsp/src/bsp/cmsis/Device/RENESAS/Source/startup.o
 .debug_abbrev  0x00000000000066e7      0x34f ./ra/fsp/src/bsp/cmsis/Device/RENESAS/Source/system.o
 .debug_abbrev  0x0000000000006a36      0x318 ./libs/c-watcher/src/watcher.o
 .debug_abbrev  0x0000000000006d4e      0x185 ./libs/c-stopwatch/src/stopwatch.o
 .debug_abbrev  0x0000000000006ed3      0x181 ./libs/c-stopwatch/src/stopwatch_timer.o
 .debug_abbrev  0x0000000000007054      0x151 ./libs/c-debounce/src/debounce.o
 .debug_abbrev  0x00000000000071a5      0x179 ./libs/c-debounce/src/pulsecounter.o

.debug_loc      0x0000000000000000    0x11489
 .debug_loc     0x0000000000000000       0x99 ./src/services/crc16-ccitt.o
 .debug_loc     0x0000000000000099     0x1209 ./src/model/cycle.o
 .debug_loc     0x00000000000012a2      0x5a0 ./src/model/heating.o
 .debug_loc     0x0000000000001842     0x23b1 ./src/model/model.o
 .debug_loc     0x0000000000003bf3      0x160 ./src/controller/controller.o
 .debug_loc     0x0000000000003d53      0x392 ./src/controller/observer.o
 .debug_loc     0x00000000000040e5      0x133 ./src/bsp/adc.o
 .debug_loc     0x0000000000004218      0x1b4 ./src/bsp/coin_reader.o
 .debug_loc     0x00000000000043cc      0x155 ./src/bsp/digin.o
 .debug_loc     0x0000000000004521       0x9a ./src/bsp/heartbit.o
 .debug_loc     0x00000000000045bb      0x256 ./src/bsp/power_off.o
 .debug_loc     0x0000000000004811       0xde ./src/bsp/pwm.o
 .debug_loc     0x00000000000048ef       0x4a ./src/bsp/relay.o
 .debug_loc     0x0000000000004939      0x194 ./src/bsp/rs232.o
 .debug_loc     0x0000000000004acd       0xea ./src/bsp/spi.o
 .debug_loc     0x0000000000004bb7       0x90 ./src/bsp/system.o
 .debug_loc     0x0000000000004c47      0x16c ./src/bsp/temperature_humidity_probe.o
 .debug_loc     0x0000000000004db3     0x2f6a ./src/adapters/modbus_server.o
 .debug_loc     0x0000000000007d1d       0x42 ./src/hal_entry.o
 .debug_loc     0x0000000000007d5f     0x1912 ./ra/fsp/src/rm_vee_flash/rm_vee_flash.o
 .debug_loc     0x0000000000009671      0xe63 ./ra/fsp/src/r_sci_uart/r_sci_uart.o
 .debug_loc     0x000000000000a4d4      0xadb ./ra/fsp/src/r_ioport/r_ioport.o
 .debug_loc     0x000000000000afaf      0x384 ./ra/fsp/src/r_icu/r_icu.o
 .debug_loc     0x000000000000b333     0x13ce ./ra/fsp/src/r_gpt/r_gpt.o
 .debug_loc     0x000000000000c701     0x1309 ./ra/fsp/src/r_flash_lp/r_flash_lp.o
 .debug_loc     0x000000000000da0a     0x11c1 ./ra/fsp/src/r_adc/r_adc.o
 .debug_loc     0x000000000000ebcb      0x2a3 ./ra/fsp/src/bsp/mcu/all/bsp_clocks.o
 .debug_loc     0x000000000000ee6e       0x25 ./ra/fsp/src/bsp/mcu/all/bsp_common.o
 .debug_loc     0x000000000000ee93      0x168 ./ra/fsp/src/bsp/mcu/all/bsp_delay.o
 .debug_loc     0x000000000000effb       0xb5 ./ra/fsp/src/bsp/mcu/all/bsp_group_irq.o
 .debug_loc     0x000000000000f0b0      0x23d ./ra/fsp/src/bsp/mcu/all/bsp_irq.o
 .debug_loc     0x000000000000f2ed      0x110 ./ra/fsp/src/bsp/mcu/all/bsp_register_protection.o
 .debug_loc     0x000000000000f3fd      0x10b ./ra/fsp/src/bsp/mcu/all/bsp_sbrk.o
 .debug_loc     0x000000000000f508       0xfe ./ra/fsp/src/bsp/cmsis/Device/RENESAS/Source/system.o
 .debug_loc     0x000000000000f606     0x13f3 ./libs/c-watcher/src/watcher.o
 .debug_loc     0x00000000000109f9      0x33f ./libs/c-stopwatch/src/stopwatch.o
 .debug_loc     0x0000000000010d38      0x343 ./libs/c-stopwatch/src/stopwatch_timer.o
 .debug_loc     0x000000000001107b      0x265 ./libs/c-debounce/src/debounce.o
 .debug_loc     0x00000000000112e0      0x1a9 ./libs/c-debounce/src/pulsecounter.o

.debug_aranges  0x0000000000000000     0x1158
 .debug_aranges
                0x0000000000000000       0x20 ./src/services/crc16-ccitt.o
 .debug_aranges
                0x0000000000000020       0xc0 ./src/model/cycle.o
 .debug_aranges
                0x00000000000000e0       0x68 ./src/model/heating.o
 .debug_aranges
                0x0000000000000148      0x1f8 ./src/model/model.o
 .debug_aranges
                0x0000000000000340       0x30 ./src/controller/controller.o
 .debug_aranges
                0x0000000000000370       0x50 ./src/controller/observer.o
 .debug_aranges
                0x00000000000003c0       0x38 ./src/bsp/adc.o
 .debug_aranges
                0x00000000000003f8       0x40 ./src/bsp/coin_reader.o
 .debug_aranges
                0x0000000000000438       0x40 ./src/bsp/digin.o
 .debug_aranges
                0x0000000000000478       0x20 ./src/bsp/heartbit.o
 .debug_aranges
                0x0000000000000498       0x50 ./src/bsp/power_off.o
 .debug_aranges
                0x00000000000004e8       0x28 ./src/bsp/pwm.o
 .debug_aranges
                0x0000000000000510       0x20 ./src/bsp/relay.o
 .debug_aranges
                0x0000000000000530       0x48 ./src/bsp/rs232.o
 .debug_aranges
                0x0000000000000578       0x20 ./src/bsp/spi.o
 .debug_aranges
                0x0000000000000598       0x30 ./src/bsp/system.o
 .debug_aranges
                0x00000000000005c8       0x28 ./src/bsp/temperature_humidity_probe.o
 .debug_aranges
                0x00000000000005f0       0xe0 ./src/adapters/modbus_server.o
 .debug_aranges
                0x00000000000006d0       0x28 ./src/hal_entry.o
 .debug_aranges
                0x00000000000006f8       0x20 ./ra_gen/common_data.o
 .debug_aranges
                0x0000000000000718       0x20 ./ra_gen/hal_data.o
 .debug_aranges
                0x0000000000000738       0x20 ./ra_gen/main.o
 .debug_aranges
                0x0000000000000758       0x18 ./ra_gen/pin_data.o
 .debug_aranges
                0x0000000000000770       0x18 ./ra_gen/vector_data.o
 .debug_aranges
                0x0000000000000788      0x100 ./ra/fsp/src/rm_vee_flash/rm_vee_flash.o
 .debug_aranges
                0x0000000000000888       0xb0 ./ra/fsp/src/r_sci_uart/r_sci_uart.o
 .debug_aranges
                0x0000000000000938       0x98 ./ra/fsp/src/r_ioport/r_ioport.o
 .debug_aranges
                0x00000000000009d0       0x48 ./ra/fsp/src/r_icu/r_icu.o
 .debug_aranges
                0x0000000000000a18      0x120 ./ra/fsp/src/r_gpt/r_gpt.o
 .debug_aranges
                0x0000000000000b38      0x118 ./ra/fsp/src/r_flash_lp/r_flash_lp.o
 .debug_aranges
                0x0000000000000c50       0xe8 ./ra/fsp/src/r_adc/r_adc.o
 .debug_aranges
                0x0000000000000d38       0x90 ./ra/fsp/src/bsp/mcu/all/bsp_clocks.o
 .debug_aranges
                0x0000000000000dc8       0x30 ./ra/fsp/src/bsp/mcu/all/bsp_common.o
 .debug_aranges
                0x0000000000000df8       0x28 ./ra/fsp/src/bsp/mcu/all/bsp_delay.o
 .debug_aranges
                0x0000000000000e20       0x30 ./ra/fsp/src/bsp/mcu/all/bsp_group_irq.o
 .debug_aranges
                0x0000000000000e50       0x18 ./ra/fsp/src/bsp/mcu/all/bsp_io.o
 .debug_aranges
                0x0000000000000e68       0x58 ./ra/fsp/src/bsp/mcu/all/bsp_irq.o
 .debug_aranges
                0x0000000000000ec0       0x28 ./ra/fsp/src/bsp/mcu/all/bsp_register_protection.o
 .debug_aranges
                0x0000000000000ee8       0x18 ./ra/fsp/src/bsp/mcu/all/bsp_rom_registers.o
 .debug_aranges
                0x0000000000000f00       0x20 ./ra/fsp/src/bsp/mcu/all/bsp_sbrk.o
 .debug_aranges
                0x0000000000000f20       0x28 ./ra/fsp/src/bsp/cmsis/Device/RENESAS/Source/startup.o
 .debug_aranges
                0x0000000000000f48       0x30 ./ra/fsp/src/bsp/cmsis/Device/RENESAS/Source/system.o
 .debug_aranges
                0x0000000000000f78       0x98 ./libs/c-watcher/src/watcher.o
 .debug_aranges
                0x0000000000001010       0x78 ./libs/c-stopwatch/src/stopwatch.o
 .debug_aranges
                0x0000000000001088       0x68 ./libs/c-stopwatch/src/stopwatch_timer.o
 .debug_aranges
                0x00000000000010f0       0x38 ./libs/c-debounce/src/debounce.o
 .debug_aranges
                0x0000000000001128       0x30 ./libs/c-debounce/src/pulsecounter.o

.debug_ranges   0x0000000000000000     0x1530
 .debug_ranges  0x0000000000000000       0x10 ./src/services/crc16-ccitt.o
 .debug_ranges  0x0000000000000010       0xb0 ./src/model/cycle.o
 .debug_ranges  0x00000000000000c0       0x90 ./src/model/heating.o
 .debug_ranges  0x0000000000000150      0x2c8 ./src/model/model.o
 .debug_ranges  0x0000000000000418       0x50 ./src/controller/controller.o
 .debug_ranges  0x0000000000000468       0x40 ./src/controller/observer.o
 .debug_ranges  0x00000000000004a8       0x40 ./src/bsp/adc.o
 .debug_ranges  0x00000000000004e8       0x60 ./src/bsp/coin_reader.o
 .debug_ranges  0x0000000000000548       0x60 ./src/bsp/digin.o
 .debug_ranges  0x00000000000005a8       0x10 ./src/bsp/heartbit.o
 .debug_ranges  0x00000000000005b8       0x40 ./src/bsp/power_off.o
 .debug_ranges  0x00000000000005f8       0x18 ./src/bsp/pwm.o
 .debug_ranges  0x0000000000000610       0x10 ./src/bsp/relay.o
 .debug_ranges  0x0000000000000620       0x38 ./src/bsp/rs232.o
 .debug_ranges  0x0000000000000658       0x28 ./src/bsp/spi.o
 .debug_ranges  0x0000000000000680       0x20 ./src/bsp/system.o
 .debug_ranges  0x00000000000006a0       0x18 ./src/bsp/temperature_humidity_probe.o
 .debug_ranges  0x00000000000006b8      0x2e0 ./src/adapters/modbus_server.o
 .debug_ranges  0x0000000000000998       0x30 ./src/hal_entry.o
 .debug_ranges  0x00000000000009c8       0x10 ./ra_gen/common_data.o
 .debug_ranges  0x00000000000009d8       0x10 ./ra_gen/hal_data.o
 .debug_ranges  0x00000000000009e8       0x10 ./ra_gen/main.o
 .debug_ranges  0x00000000000009f8      0x108 ./ra/fsp/src/rm_vee_flash/rm_vee_flash.o
 .debug_ranges  0x0000000000000b00      0x118 ./ra/fsp/src/r_sci_uart/r_sci_uart.o
 .debug_ranges  0x0000000000000c18       0xa0 ./ra/fsp/src/r_ioport/r_ioport.o
 .debug_ranges  0x0000000000000cb8       0x38 ./ra/fsp/src/r_icu/r_icu.o
 .debug_ranges  0x0000000000000cf0      0x160 ./ra/fsp/src/r_gpt/r_gpt.o
 .debug_ranges  0x0000000000000e50      0x138 ./ra/fsp/src/r_flash_lp/r_flash_lp.o
 .debug_ranges  0x0000000000000f88      0x150 ./ra/fsp/src/r_adc/r_adc.o
 .debug_ranges  0x00000000000010d8       0x80 ./ra/fsp/src/bsp/mcu/all/bsp_clocks.o
 .debug_ranges  0x0000000000001158       0x20 ./ra/fsp/src/bsp/mcu/all/bsp_common.o
 .debug_ranges  0x0000000000001178       0x30 ./ra/fsp/src/bsp/mcu/all/bsp_delay.o
 .debug_ranges  0x00000000000011a8       0x20 ./ra/fsp/src/bsp/mcu/all/bsp_group_irq.o
 .debug_ranges  0x00000000000011c8       0x48 ./ra/fsp/src/bsp/mcu/all/bsp_irq.o
 .debug_ranges  0x0000000000001210       0x18 ./ra/fsp/src/bsp/mcu/all/bsp_register_protection.o
 .debug_ranges  0x0000000000001228       0x10 ./ra/fsp/src/bsp/mcu/all/bsp_sbrk.o
 .debug_ranges  0x0000000000001238       0x18 ./ra/fsp/src/bsp/cmsis/Device/RENESAS/Source/startup.o
 .debug_ranges  0x0000000000001250       0x20 ./ra/fsp/src/bsp/cmsis/Device/RENESAS/Source/system.o
 .debug_ranges  0x0000000000001270      0x188 ./libs/c-watcher/src/watcher.o
 .debug_ranges  0x00000000000013f8       0x98 ./libs/c-stopwatch/src/stopwatch.o
 .debug_ranges  0x0000000000001490       0x58 ./libs/c-stopwatch/src/stopwatch_timer.o
 .debug_ranges  0x00000000000014e8       0x28 ./libs/c-debounce/src/debounce.o
 .debug_ranges  0x0000000000001510       0x20 ./libs/c-debounce/src/pulsecounter.o

.debug_line     0x0000000000000000    0x14c57
 .debug_line    0x0000000000000000       0xd0 ./src/services/crc16-ccitt.o
 .debug_line    0x00000000000000d0      0xd1b ./src/model/cycle.o
 .debug_line    0x0000000000000deb      0x564 ./src/model/heating.o
 .debug_line    0x000000000000134f     0x1f04 ./src/model/model.o
 .debug_line    0x0000000000003253      0x583 ./src/controller/controller.o
 .debug_line    0x00000000000037d6      0x557 ./src/controller/observer.o
 .debug_line    0x0000000000003d2d      0x6dd ./src/bsp/adc.o
 .debug_line    0x000000000000440a      0x5d8 ./src/bsp/coin_reader.o
 .debug_line    0x00000000000049e2      0x592 ./src/bsp/digin.o
 .debug_line    0x0000000000004f74      0x3f7 ./src/bsp/heartbit.o
 .debug_line    0x000000000000536b      0x59f ./src/bsp/power_off.o
 .debug_line    0x000000000000590a      0x47c ./src/bsp/pwm.o
 .debug_line    0x0000000000005d86      0x2b4 ./src/bsp/relay.o
 .debug_line    0x000000000000603a      0x507 ./src/bsp/rs232.o
 .debug_line    0x0000000000006541      0x3ed ./src/bsp/spi.o
 .debug_line    0x000000000000692e      0x375 ./src/bsp/system.o
 .debug_line    0x0000000000006ca3      0x448 ./src/bsp/temperature_humidity_probe.o
 .debug_line    0x00000000000070eb     0x2421 ./src/adapters/modbus_server.o
 .debug_line    0x000000000000950c      0x656 ./src/hal_entry.o
 .debug_line    0x0000000000009b62      0x346 ./ra_gen/common_data.o
 .debug_line    0x0000000000009ea8      0x460 ./ra_gen/hal_data.o
 .debug_line    0x000000000000a308       0x56 ./ra_gen/main.o
 .debug_line    0x000000000000a35e      0x276 ./ra_gen/pin_data.o
 .debug_line    0x000000000000a5d4      0x129 ./ra_gen/vector_data.o
 .debug_line    0x000000000000a6fd     0x1351 ./ra/fsp/src/rm_vee_flash/rm_vee_flash.o
 .debug_line    0x000000000000ba4e      0xf5a ./ra/fsp/src/r_sci_uart/r_sci_uart.o
 .debug_line    0x000000000000c9a8      0x99f ./ra/fsp/src/r_ioport/r_ioport.o
 .debug_line    0x000000000000d347      0x669 ./ra/fsp/src/r_icu/r_icu.o
 .debug_line    0x000000000000d9b0     0x1276 ./ra/fsp/src/r_gpt/r_gpt.o
 .debug_line    0x000000000000ec26      0xf4b ./ra/fsp/src/r_flash_lp/r_flash_lp.o
 .debug_line    0x000000000000fb71     0x116e ./ra/fsp/src/r_adc/r_adc.o
 .debug_line    0x0000000000010cdf      0x66f ./ra/fsp/src/bsp/mcu/all/bsp_clocks.o
 .debug_line    0x000000000001134e      0x304 ./ra/fsp/src/bsp/mcu/all/bsp_common.o
 .debug_line    0x0000000000011652      0x2f7 ./ra/fsp/src/bsp/mcu/all/bsp_delay.o
 .debug_line    0x0000000000011949      0x375 ./ra/fsp/src/bsp/mcu/all/bsp_group_irq.o
 .debug_line    0x0000000000011cbe      0x1ce ./ra/fsp/src/bsp/mcu/all/bsp_io.o
 .debug_line    0x0000000000011e8c      0x526 ./ra/fsp/src/bsp/mcu/all/bsp_irq.o
 .debug_line    0x00000000000123b2      0x3fb ./ra/fsp/src/bsp/mcu/all/bsp_register_protection.o
 .debug_line    0x00000000000127ad      0x16f ./ra/fsp/src/bsp/mcu/all/bsp_rom_registers.o
 .debug_line    0x000000000001291c      0x1ea ./ra/fsp/src/bsp/mcu/all/bsp_sbrk.o
 .debug_line    0x0000000000012b06      0x237 ./ra/fsp/src/bsp/cmsis/Device/RENESAS/Source/startup.o
 .debug_line    0x0000000000012d3d      0x5e2 ./ra/fsp/src/bsp/cmsis/Device/RENESAS/Source/system.o
 .debug_line    0x000000000001331f      0xdda ./libs/c-watcher/src/watcher.o
 .debug_line    0x00000000000140f9      0x3f8 ./libs/c-stopwatch/src/stopwatch.o
 .debug_line    0x00000000000144f1      0x334 ./libs/c-stopwatch/src/stopwatch_timer.o
 .debug_line    0x0000000000014825      0x266 ./libs/c-debounce/src/debounce.o
 .debug_line    0x0000000000014a8b      0x1cc ./libs/c-debounce/src/pulsecounter.o

.debug_str      0x0000000000000000    0x17046
 .debug_str     0x0000000000000000      0x172 ./src/services/crc16-ccitt.o
                                        0x185 (size before relaxing)
 .debug_str     0x0000000000000172      0xdb4 ./src/model/cycle.o
                                       0x100f (size before relaxing)
 .debug_str     0x0000000000000f26      0x115 ./src/model/heating.o
                                        0xceb (size before relaxing)
 .debug_str     0x000000000000103b      0x707 ./src/model/model.o
                                       0x1610 (size before relaxing)
 .debug_str     0x0000000000001742      0x206 ./src/controller/controller.o
                                        0xe1b (size before relaxing)
 .debug_str     0x0000000000001948      0x21e ./src/controller/observer.o
                                        0xe65 (size before relaxing)
 .debug_str     0x0000000000001b66     0x36b3 ./src/bsp/adc.o
                                       0x39f0 (size before relaxing)
 .debug_str     0x0000000000005219     0x1830 ./src/bsp/coin_reader.o
                                       0x34dd (size before relaxing)
 .debug_str     0x0000000000006a49      0x12f ./src/bsp/digin.o
                                       0x347e (size before relaxing)
 .debug_str     0x0000000000006b78       0x30 ./src/bsp/heartbit.o
                                       0x3331 (size before relaxing)
 .debug_str     0x0000000000006ba8      0xb68 ./src/bsp/power_off.o
                                       0x287f (size before relaxing)
 .debug_str     0x0000000000007710     0x15ca ./src/bsp/pwm.o
                                       0x32b8 (size before relaxing)
 .debug_str     0x0000000000008cda       0x13 ./src/bsp/relay.o
                                       0x3326 (size before relaxing)
 .debug_str     0x0000000000008ced      0x8e9 ./src/bsp/rs232.o
                                       0x2613 (size before relaxing)
 .debug_str     0x00000000000095d6       0x9f ./src/bsp/spi.o
                                       0x333d (size before relaxing)
 .debug_str     0x0000000000009675       0xee ./src/bsp/system.o
                                        0x3c1 (size before relaxing)
 .debug_str     0x0000000000009763       0x45 ./src/bsp/temperature_humidity_probe.o
                                       0x33a8 (size before relaxing)
 .debug_str     0x00000000000097a8      0xe48 ./src/adapters/modbus_server.o
                                       0x1bfc (size before relaxing)
 .debug_str     0x000000000000a5f0      0x524 ./src/hal_entry.o
                                       0x433f (size before relaxing)
 .debug_str     0x000000000000ab14       0xcb ./ra_gen/common_data.o
                                       0x36eb (size before relaxing)
 .debug_str     0x000000000000abdf     0x35f7 ./ra_gen/hal_data.o
                                       0xaa92 (size before relaxing)
 .debug_str     0x000000000000e1d6       0x16 ./ra_gen/main.o
                                        0x1c5 (size before relaxing)
 .debug_str     0x000000000000e1ec      0x660 ./ra_gen/pin_data.o
                                       0x1d68 (size before relaxing)
 .debug_str     0x000000000000e84c     0x2c4d ./ra_gen/vector_data.o
                                       0x2dec (size before relaxing)
 .debug_str     0x0000000000011499      0x699 ./ra/fsp/src/rm_vee_flash/rm_vee_flash.o
                                       0x2d22 (size before relaxing)
 .debug_str     0x0000000000011b32     0x1f48 ./ra/fsp/src/r_sci_uart/r_sci_uart.o
                                       0x6753 (size before relaxing)
 .debug_str     0x0000000000013a7a      0x776 ./ra/fsp/src/r_ioport/r_ioport.o
                                       0x3b0a (size before relaxing)
 .debug_str     0x00000000000141f0      0x43d ./ra/fsp/src/r_icu/r_icu.o
                                       0x24ce (size before relaxing)
 .debug_str     0x000000000001462d      0xaf7 ./ra/fsp/src/r_gpt/r_gpt.o
                                       0x6985 (size before relaxing)
 .debug_str     0x0000000000015124      0x4b1 ./ra/fsp/src/r_flash_lp/r_flash_lp.o
                                       0x4571 (size before relaxing)
 .debug_str     0x00000000000155d5      0x54e ./ra/fsp/src/r_adc/r_adc.o
                                       0x76ec (size before relaxing)
 .debug_str     0x0000000000015b23      0x89d ./ra/fsp/src/bsp/mcu/all/bsp_clocks.o
                                       0x2745 (size before relaxing)
 .debug_str     0x00000000000163c0       0xf8 ./ra/fsp/src/bsp/mcu/all/bsp_common.o
                                       0x1c12 (size before relaxing)
 .debug_str     0x00000000000164b8       0xa2 ./ra/fsp/src/bsp/mcu/all/bsp_delay.o
                                        0x2fb (size before relaxing)
 .debug_str     0x000000000001655a      0x1e4 ./ra/fsp/src/bsp/mcu/all/bsp_group_irq.o
                                       0x2179 (size before relaxing)
 .debug_str     0x000000000001673e       0x23 ./ra/fsp/src/bsp/mcu/all/bsp_io.o
                                        0x1ee (size before relaxing)
 .debug_str     0x0000000000016761       0x59 ./ra/fsp/src/bsp/mcu/all/bsp_irq.o
                                       0x347c (size before relaxing)
 .debug_str     0x00000000000167ba      0x12b ./ra/fsp/src/bsp/mcu/all/bsp_register_protection.o
                                       0x1b45 (size before relaxing)
 .debug_str     0x00000000000168e5       0x51 ./ra/fsp/src/bsp/mcu/all/bsp_rom_registers.o
                                        0x204 (size before relaxing)
 .debug_str     0x0000000000016936       0x96 ./ra/fsp/src/bsp/mcu/all/bsp_sbrk.o
                                        0x24f (size before relaxing)
 .debug_str     0x00000000000169cc       0x89 ./ra/fsp/src/bsp/cmsis/Device/RENESAS/Source/startup.o
                                        0x23f (size before relaxing)
 .debug_str     0x0000000000016a55      0x10d ./ra/fsp/src/bsp/cmsis/Device/RENESAS/Source/system.o
                                        0xff6 (size before relaxing)
 .debug_str     0x0000000000016b62      0x2ec ./libs/c-watcher/src/watcher.o
                                        0x664 (size before relaxing)
 .debug_str     0x0000000000016e4e       0xdc ./libs/c-stopwatch/src/stopwatch.o
                                        0x346 (size before relaxing)
 .debug_str     0x0000000000016f2a       0x94 ./libs/c-stopwatch/src/stopwatch_timer.o
                                        0x3ed (size before relaxing)
 .debug_str     0x0000000000016fbe       0x56 ./libs/c-debounce/src/debounce.o
                                        0x25c (size before relaxing)
 .debug_str     0x0000000000017014       0x32 ./libs/c-debounce/src/pulsecounter.o
                                        0x1fd (size before relaxing)

.debug_frame    0x0000000000000000     0x2da4
 .debug_frame   0x0000000000000000       0x2c ./src/services/crc16-ccitt.o
 .debug_frame   0x000000000000002c      0x244 ./src/model/cycle.o
 .debug_frame   0x0000000000000270      0x10c ./src/model/heating.o
 .debug_frame   0x000000000000037c      0x5dc ./src/model/model.o
 .debug_frame   0x0000000000000958       0x68 ./src/controller/controller.o
 .debug_frame   0x00000000000009c0       0xd0 ./src/controller/observer.o
 .debug_frame   0x0000000000000a90       0x70 ./src/bsp/adc.o
 .debug_frame   0x0000000000000b00       0x84 ./src/bsp/coin_reader.o
 .debug_frame   0x0000000000000b84       0x78 ./src/bsp/digin.o
 .debug_frame   0x0000000000000bfc       0x28 ./src/bsp/heartbit.o
 .debug_frame   0x0000000000000c24       0xac ./src/bsp/power_off.o
 .debug_frame   0x0000000000000cd0       0x44 ./src/bsp/pwm.o
 .debug_frame   0x0000000000000d14       0x30 ./src/bsp/relay.o
 .debug_frame   0x0000000000000d44       0x9c ./src/bsp/rs232.o
 .debug_frame   0x0000000000000de0       0x38 ./src/bsp/spi.o
 .debug_frame   0x0000000000000e18       0x40 ./src/bsp/system.o
 .debug_frame   0x0000000000000e58       0x48 ./src/bsp/temperature_humidity_probe.o
 .debug_frame   0x0000000000000ea0      0x2e8 ./src/adapters/modbus_server.o
 .debug_frame   0x0000000000001188       0x44 ./src/hal_entry.o
 .debug_frame   0x00000000000011cc       0x20 ./ra_gen/common_data.o
 .debug_frame   0x00000000000011ec       0x28 ./ra_gen/hal_data.o
 .debug_frame   0x0000000000001214       0x28 ./ra_gen/main.o
 .debug_frame   0x000000000000123c      0x320 ./ra/fsp/src/rm_vee_flash/rm_vee_flash.o
 .debug_frame   0x000000000000155c      0x1f0 ./ra/fsp/src/r_sci_uart/r_sci_uart.o
 .debug_frame   0x000000000000174c      0x158 ./ra/fsp/src/r_ioport/r_ioport.o
 .debug_frame   0x00000000000018a4       0xa4 ./ra/fsp/src/r_icu/r_icu.o
 .debug_frame   0x0000000000001948      0x2e8 ./ra/fsp/src/r_gpt/r_gpt.o
 .debug_frame   0x0000000000001c30      0x2f0 ./ra/fsp/src/r_flash_lp/r_flash_lp.o
 .debug_frame   0x0000000000001f20      0x28c ./ra/fsp/src/r_adc/r_adc.o
 .debug_frame   0x00000000000021ac      0x14c ./ra/fsp/src/bsp/mcu/all/bsp_clocks.o
 .debug_frame   0x00000000000022f8       0x40 ./ra/fsp/src/bsp/mcu/all/bsp_common.o
 .debug_frame   0x0000000000002338       0x3c ./ra/fsp/src/bsp/mcu/all/bsp_delay.o
 .debug_frame   0x0000000000002374       0x54 ./ra/fsp/src/bsp/mcu/all/bsp_group_irq.o
 .debug_frame   0x00000000000023c8       0xbc ./ra/fsp/src/bsp/mcu/all/bsp_irq.o
 .debug_frame   0x0000000000002484       0x48 ./ra/fsp/src/bsp/mcu/all/bsp_register_protection.o
 .debug_frame   0x00000000000024cc       0x28 ./ra/fsp/src/bsp/mcu/all/bsp_sbrk.o
 .debug_frame   0x00000000000024f4       0x38 ./ra/fsp/src/bsp/cmsis/Device/RENESAS/Source/startup.o
 .debug_frame   0x000000000000252c       0x58 ./ra/fsp/src/bsp/cmsis/Device/RENESAS/Source/system.o
 .debug_frame   0x0000000000002584      0x1e4 ./libs/c-watcher/src/watcher.o
 .debug_frame   0x0000000000002768       0xe4 ./libs/c-stopwatch/src/stopwatch.o
 .debug_frame   0x000000000000284c       0xf0 ./libs/c-stopwatch/src/stopwatch_timer.o
 .debug_frame   0x000000000000293c       0x74 ./libs/c-debounce/src/debounce.o
 .debug_frame   0x00000000000029b0       0x54 ./libs/c-debounce/src/pulsecounter.o
 .debug_frame   0x0000000000002a04       0x34 /home/maldus/Local/renesas/e2_studio/toolchains/gcc_arm/10_3_2021_10/gcc-arm-none-eabi-10.3-2021.10/bin/../lib/gcc/arm-none-eabi/10.3.1/thumb/v8-m.base/nofp/libgcc.a(_muldi3.o)
 .debug_frame   0x0000000000002a38       0x3c /home/maldus/Local/renesas/e2_studio/toolchains/gcc_arm/10_3_2021_10/gcc-arm-none-eabi-10.3-2021.10/bin/../lib/gcc/arm-none-eabi/10.3.1/thumb/v8-m.base/nofp/libgcc.a(_udivmoddi4.o)
 .debug_frame   0x0000000000002a74       0x20 /home/maldus/Local/renesas/e2_studio/toolchains/gcc_arm/10_3_2021_10/gcc-arm-none-eabi-10.3-2021.10/bin/../lib/gcc/arm-none-eabi/10.3.1/../../../../arm-none-eabi/lib/thumb/v8-m.base/nofp/libg_nano.a(lib_a-errno.o)
 .debug_frame   0x0000000000002a94       0x40 /home/maldus/Local/renesas/e2_studio/toolchains/gcc_arm/10_3_2021_10/gcc-arm-none-eabi-10.3-2021.10/bin/../lib/gcc/arm-none-eabi/10.3.1/../../../../arm-none-eabi/lib/thumb/v8-m.base/nofp/libg_nano.a(lib_a-malloc.o)
 .debug_frame   0x0000000000002ad4       0x2c /home/maldus/Local/renesas/e2_studio/toolchains/gcc_arm/10_3_2021_10/gcc-arm-none-eabi-10.3-2021.10/bin/../lib/gcc/arm-none-eabi/10.3.1/../../../../arm-none-eabi/lib/thumb/v8-m.base/nofp/libg_nano.a(lib_a-memcmp.o)
 .debug_frame   0x0000000000002b00       0x28 /home/maldus/Local/renesas/e2_studio/toolchains/gcc_arm/10_3_2021_10/gcc-arm-none-eabi-10.3-2021.10/bin/../lib/gcc/arm-none-eabi/10.3.1/../../../../arm-none-eabi/lib/thumb/v8-m.base/nofp/libg_nano.a(lib_a-memcpy-stub.o)
 .debug_frame   0x0000000000002b28       0x20 /home/maldus/Local/renesas/e2_studio/toolchains/gcc_arm/10_3_2021_10/gcc-arm-none-eabi-10.3-2021.10/bin/../lib/gcc/arm-none-eabi/10.3.1/../../../../arm-none-eabi/lib/thumb/v8-m.base/nofp/libg_nano.a(lib_a-memset.o)
 .debug_frame   0x0000000000002b48       0x2c /home/maldus/Local/renesas/e2_studio/toolchains/gcc_arm/10_3_2021_10/gcc-arm-none-eabi-10.3-2021.10/bin/../lib/gcc/arm-none-eabi/10.3.1/../../../../arm-none-eabi/lib/thumb/v8-m.base/nofp/libg_nano.a(lib_a-nano-freer.o)
 .debug_frame   0x0000000000002b74       0x50 /home/maldus/Local/renesas/e2_studio/toolchains/gcc_arm/10_3_2021_10/gcc-arm-none-eabi-10.3-2021.10/bin/../lib/gcc/arm-none-eabi/10.3.1/../../../../arm-none-eabi/lib/thumb/v8-m.base/nofp/libg_nano.a(lib_a-nano-mallocr.o)
 .debug_frame   0x0000000000002bc4       0x28 /home/maldus/Local/renesas/e2_studio/toolchains/gcc_arm/10_3_2021_10/gcc-arm-none-eabi-10.3-2021.10/bin/../lib/gcc/arm-none-eabi/10.3.1/../../../../arm-none-eabi/lib/thumb/v8-m.base/nofp/libg_nano.a(lib_a-realloc.o)
 .debug_frame   0x0000000000002bec       0x2c /home/maldus/Local/renesas/e2_studio/toolchains/gcc_arm/10_3_2021_10/gcc-arm-none-eabi-10.3-2021.10/bin/../lib/gcc/arm-none-eabi/10.3.1/../../../../arm-none-eabi/lib/thumb/v8-m.base/nofp/libg_nano.a(lib_a-sbrkr.o)
 .debug_frame   0x0000000000002c18       0x40 /home/maldus/Local/renesas/e2_studio/toolchains/gcc_arm/10_3_2021_10/gcc-arm-none-eabi-10.3-2021.10/bin/../lib/gcc/arm-none-eabi/10.3.1/../../../../arm-none-eabi/lib/thumb/v8-m.base/nofp/libg_nano.a(lib_a-mlock.o)
 .debug_frame   0x0000000000002c58       0x34 /home/maldus/Local/renesas/e2_studio/toolchains/gcc_arm/10_3_2021_10/gcc-arm-none-eabi-10.3-2021.10/bin/../lib/gcc/arm-none-eabi/10.3.1/../../../../arm-none-eabi/lib/thumb/v8-m.base/nofp/libg_nano.a(lib_a-nano-reallocr.o)
 .debug_frame   0x0000000000002c8c       0x48 /home/maldus/Local/renesas/e2_studio/toolchains/gcc_arm/10_3_2021_10/gcc-arm-none-eabi-10.3-2021.10/bin/../lib/gcc/arm-none-eabi/10.3.1/../../../../arm-none-eabi/lib/thumb/v8-m.base/nofp/libg_nano.a(lib_a-reent.o)
 .debug_frame   0x0000000000002cd4       0xb0 /home/maldus/Local/renesas/e2_studio/toolchains/gcc_arm/10_3_2021_10/gcc-arm-none-eabi-10.3-2021.10/bin/../lib/gcc/arm-none-eabi/10.3.1/../../../../arm-none-eabi/lib/thumb/v8-m.base/nofp/libg_nano.a(lib_a-lock.o)
 .debug_frame   0x0000000000002d84       0x20 /home/maldus/Local/renesas/e2_studio/toolchains/gcc_arm/10_3_2021_10/gcc-arm-none-eabi-10.3-2021.10/bin/../lib/gcc/arm-none-eabi/10.3.1/../../../../arm-none-eabi/lib/thumb/v8-m.base/nofp/libg_nano.a(lib_a-nano-msizer.o)
